ARM GAS  /var/folders/5r/jcdnhfj535b7rff_ygc02qhr0000gn/T//cct0A4AP.s 			page 1


   1              		.cpu cortex-m7
   2              		.arch armv7e-m
   3              		.fpu fpv5-d16
   4              		.eabi_attribute 28, 1
   5              		.eabi_attribute 20, 1
   6              		.eabi_attribute 21, 1
   7              		.eabi_attribute 23, 3
   8              		.eabi_attribute 24, 1
   9              		.eabi_attribute 25, 1
  10              		.eabi_attribute 26, 1
  11              		.eabi_attribute 30, 2
  12              		.eabi_attribute 34, 1
  13              		.eabi_attribute 18, 4
  14              		.file	"big_knob.cpp"
  15              		.text
  16              	.Ltext0:
  17              		.cfi_sections	.debug_frame
  18              		.file 1 "big_knob.cpp"
  19              		.section	.text._ZN5daisy9DaisySeedD2Ev,"axG",%progbits,_ZN5daisy9DaisySeedD5Ev,comdat
  20              		.align	1
  21              		.p2align 2,,3
  22              		.weak	_ZN5daisy9DaisySeedD2Ev
  23              		.syntax unified
  24              		.thumb
  25              		.thumb_func
  27              	_ZN5daisy9DaisySeedD2Ev:
  28              	.LVL0:
  29              	.LFB2322:
  30              		.file 2 "/Users/ansel/Documents/DaisyExamples/libDaisy//src/daisy_seed.h"
   1:/Users/ansel/Documents/DaisyExamples/libDaisy//src/daisy_seed.h **** #pragma once
   2:/Users/ansel/Documents/DaisyExamples/libDaisy//src/daisy_seed.h **** #ifndef DSY_SEED_H
   3:/Users/ansel/Documents/DaisyExamples/libDaisy//src/daisy_seed.h **** #define DSY_SEED_H
   4:/Users/ansel/Documents/DaisyExamples/libDaisy//src/daisy_seed.h **** 
   5:/Users/ansel/Documents/DaisyExamples/libDaisy//src/daisy_seed.h **** #include "daisy.h"
   6:/Users/ansel/Documents/DaisyExamples/libDaisy//src/daisy_seed.h **** 
   7:/Users/ansel/Documents/DaisyExamples/libDaisy//src/daisy_seed.h **** //Uncomment this out if you're still using the rev2 hardware
   8:/Users/ansel/Documents/DaisyExamples/libDaisy//src/daisy_seed.h **** //#define SEED_REV2
   9:/Users/ansel/Documents/DaisyExamples/libDaisy//src/daisy_seed.h **** 
  10:/Users/ansel/Documents/DaisyExamples/libDaisy//src/daisy_seed.h **** namespace daisy
  11:/Users/ansel/Documents/DaisyExamples/libDaisy//src/daisy_seed.h **** {
  12:/Users/ansel/Documents/DaisyExamples/libDaisy//src/daisy_seed.h **** /**
  13:/Users/ansel/Documents/DaisyExamples/libDaisy//src/daisy_seed.h ****    @brief This is the higher-level interface for the Daisy board. \n 
  14:/Users/ansel/Documents/DaisyExamples/libDaisy//src/daisy_seed.h ****     All basic peripheral configuration/initialization is setup here. \n
  15:/Users/ansel/Documents/DaisyExamples/libDaisy//src/daisy_seed.h **** 
  16:/Users/ansel/Documents/DaisyExamples/libDaisy//src/daisy_seed.h ****    @ingroup boards
  17:/Users/ansel/Documents/DaisyExamples/libDaisy//src/daisy_seed.h **** */
  18:/Users/ansel/Documents/DaisyExamples/libDaisy//src/daisy_seed.h **** class DaisySeed
  19:/Users/ansel/Documents/DaisyExamples/libDaisy//src/daisy_seed.h **** {
  20:/Users/ansel/Documents/DaisyExamples/libDaisy//src/daisy_seed.h ****   public:
  21:/Users/ansel/Documents/DaisyExamples/libDaisy//src/daisy_seed.h ****     DaisySeed() {}
  22:/Users/ansel/Documents/DaisyExamples/libDaisy//src/daisy_seed.h ****     ~DaisySeed() {}
  31              		.loc 2 22 5 view -0
  32              		.cfi_startproc
  33              		@ args = 0, pretend = 0, frame = 0
  34              		@ frame_needed = 0, uses_anonymous_args = 0
  35              		@ link register save eliminated.
  36              	.LBB113:
ARM GAS  /var/folders/5r/jcdnhfj535b7rff_ygc02qhr0000gn/T//cct0A4AP.s 			page 2


  37              	.LBI113:
  38              		.file 3 "/Users/ansel/Documents/DaisyExamples/libDaisy//src/sys/system.h"
   1:/Users/ansel/Documents/DaisyExamples/libDaisy//src/sys/system.h **** #ifndef DSY_SYSTEM_H
   2:/Users/ansel/Documents/DaisyExamples/libDaisy//src/sys/system.h **** #define DSY_SYSTEM_H
   3:/Users/ansel/Documents/DaisyExamples/libDaisy//src/sys/system.h **** 
   4:/Users/ansel/Documents/DaisyExamples/libDaisy//src/sys/system.h **** #ifndef UNIT_TEST // for unit tests, a dummy implementation is provided below
   5:/Users/ansel/Documents/DaisyExamples/libDaisy//src/sys/system.h **** 
   6:/Users/ansel/Documents/DaisyExamples/libDaisy//src/sys/system.h **** #include <cstdint>
   7:/Users/ansel/Documents/DaisyExamples/libDaisy//src/sys/system.h **** #include "per/tim.h"
   8:/Users/ansel/Documents/DaisyExamples/libDaisy//src/sys/system.h **** 
   9:/Users/ansel/Documents/DaisyExamples/libDaisy//src/sys/system.h **** namespace daisy
  10:/Users/ansel/Documents/DaisyExamples/libDaisy//src/sys/system.h **** {
  11:/Users/ansel/Documents/DaisyExamples/libDaisy//src/sys/system.h **** /** A handle for interacting with the Core System. 
  12:/Users/ansel/Documents/DaisyExamples/libDaisy//src/sys/system.h ****  ** This includes the Clock tree, MPU, global DMA initialization,
  13:/Users/ansel/Documents/DaisyExamples/libDaisy//src/sys/system.h ****  ** cache handling, and any other necessary global initiailzation
  14:/Users/ansel/Documents/DaisyExamples/libDaisy//src/sys/system.h ****  **
  15:/Users/ansel/Documents/DaisyExamples/libDaisy//src/sys/system.h ****  ** @author shensley
  16:/Users/ansel/Documents/DaisyExamples/libDaisy//src/sys/system.h ****  ** @ingroup system
  17:/Users/ansel/Documents/DaisyExamples/libDaisy//src/sys/system.h ****  */
  18:/Users/ansel/Documents/DaisyExamples/libDaisy//src/sys/system.h **** class System
  19:/Users/ansel/Documents/DaisyExamples/libDaisy//src/sys/system.h **** {
  20:/Users/ansel/Documents/DaisyExamples/libDaisy//src/sys/system.h ****   public:
  21:/Users/ansel/Documents/DaisyExamples/libDaisy//src/sys/system.h ****     /** Contains settings for initializing the System */
  22:/Users/ansel/Documents/DaisyExamples/libDaisy//src/sys/system.h ****     struct Config
  23:/Users/ansel/Documents/DaisyExamples/libDaisy//src/sys/system.h ****     {
  24:/Users/ansel/Documents/DaisyExamples/libDaisy//src/sys/system.h ****         /** Specifies the system clock frequency that feeds APB/AHB clocks, etc. */
  25:/Users/ansel/Documents/DaisyExamples/libDaisy//src/sys/system.h ****         enum class SysClkFreq
  26:/Users/ansel/Documents/DaisyExamples/libDaisy//src/sys/system.h ****         {
  27:/Users/ansel/Documents/DaisyExamples/libDaisy//src/sys/system.h ****             FREQ_400MHZ,
  28:/Users/ansel/Documents/DaisyExamples/libDaisy//src/sys/system.h ****             FREQ_480MHZ,
  29:/Users/ansel/Documents/DaisyExamples/libDaisy//src/sys/system.h ****         };
  30:/Users/ansel/Documents/DaisyExamples/libDaisy//src/sys/system.h **** 
  31:/Users/ansel/Documents/DaisyExamples/libDaisy//src/sys/system.h ****         /** Method to call on the struct to set to defaults
  32:/Users/ansel/Documents/DaisyExamples/libDaisy//src/sys/system.h ****          ** CPU Freq set to 400MHz
  33:/Users/ansel/Documents/DaisyExamples/libDaisy//src/sys/system.h ****          ** Cache Enabled 
  34:/Users/ansel/Documents/DaisyExamples/libDaisy//src/sys/system.h ****          ** */
  35:/Users/ansel/Documents/DaisyExamples/libDaisy//src/sys/system.h ****         void Defaults()
  36:/Users/ansel/Documents/DaisyExamples/libDaisy//src/sys/system.h ****         {
  37:/Users/ansel/Documents/DaisyExamples/libDaisy//src/sys/system.h ****             cpu_freq    = SysClkFreq::FREQ_400MHZ;
  38:/Users/ansel/Documents/DaisyExamples/libDaisy//src/sys/system.h ****             use_dcache  = true;
  39:/Users/ansel/Documents/DaisyExamples/libDaisy//src/sys/system.h ****             use_icache  = true;
  40:/Users/ansel/Documents/DaisyExamples/libDaisy//src/sys/system.h ****             skip_clocks = false;
  41:/Users/ansel/Documents/DaisyExamples/libDaisy//src/sys/system.h ****         }
  42:/Users/ansel/Documents/DaisyExamples/libDaisy//src/sys/system.h **** 
  43:/Users/ansel/Documents/DaisyExamples/libDaisy//src/sys/system.h ****         /** Method to call on the struct to set to boost mode:
  44:/Users/ansel/Documents/DaisyExamples/libDaisy//src/sys/system.h ****          ** CPU Freq set to 480MHz
  45:/Users/ansel/Documents/DaisyExamples/libDaisy//src/sys/system.h ****          ** Cache Enabled 
  46:/Users/ansel/Documents/DaisyExamples/libDaisy//src/sys/system.h ****          ** */
  47:/Users/ansel/Documents/DaisyExamples/libDaisy//src/sys/system.h ****         void Boost()
  48:/Users/ansel/Documents/DaisyExamples/libDaisy//src/sys/system.h ****         {
  49:/Users/ansel/Documents/DaisyExamples/libDaisy//src/sys/system.h ****             cpu_freq    = SysClkFreq::FREQ_480MHZ;
  50:/Users/ansel/Documents/DaisyExamples/libDaisy//src/sys/system.h ****             use_dcache  = true;
  51:/Users/ansel/Documents/DaisyExamples/libDaisy//src/sys/system.h ****             use_icache  = true;
  52:/Users/ansel/Documents/DaisyExamples/libDaisy//src/sys/system.h ****             skip_clocks = false;
  53:/Users/ansel/Documents/DaisyExamples/libDaisy//src/sys/system.h ****         }
  54:/Users/ansel/Documents/DaisyExamples/libDaisy//src/sys/system.h **** 
  55:/Users/ansel/Documents/DaisyExamples/libDaisy//src/sys/system.h ****         SysClkFreq cpu_freq;
ARM GAS  /var/folders/5r/jcdnhfj535b7rff_ygc02qhr0000gn/T//cct0A4AP.s 			page 3


  56:/Users/ansel/Documents/DaisyExamples/libDaisy//src/sys/system.h ****         bool       use_dcache;
  57:/Users/ansel/Documents/DaisyExamples/libDaisy//src/sys/system.h ****         bool       use_icache;
  58:/Users/ansel/Documents/DaisyExamples/libDaisy//src/sys/system.h ****         bool       skip_clocks;
  59:/Users/ansel/Documents/DaisyExamples/libDaisy//src/sys/system.h ****     };
  60:/Users/ansel/Documents/DaisyExamples/libDaisy//src/sys/system.h **** 
  61:/Users/ansel/Documents/DaisyExamples/libDaisy//src/sys/system.h ****     /** Describes the different regions of memory available to the Daisy
  62:/Users/ansel/Documents/DaisyExamples/libDaisy//src/sys/system.h ****      * 
  63:/Users/ansel/Documents/DaisyExamples/libDaisy//src/sys/system.h ****      */
  64:/Users/ansel/Documents/DaisyExamples/libDaisy//src/sys/system.h ****     enum MemoryRegion
  65:/Users/ansel/Documents/DaisyExamples/libDaisy//src/sys/system.h ****     {
  66:/Users/ansel/Documents/DaisyExamples/libDaisy//src/sys/system.h ****         INTERNAL_FLASH = 0,
  67:/Users/ansel/Documents/DaisyExamples/libDaisy//src/sys/system.h ****         ITCMRAM,
  68:/Users/ansel/Documents/DaisyExamples/libDaisy//src/sys/system.h ****         DTCMRAM,
  69:/Users/ansel/Documents/DaisyExamples/libDaisy//src/sys/system.h ****         SRAM_D1,
  70:/Users/ansel/Documents/DaisyExamples/libDaisy//src/sys/system.h ****         SRAM_D2,
  71:/Users/ansel/Documents/DaisyExamples/libDaisy//src/sys/system.h ****         SRAM_D3,
  72:/Users/ansel/Documents/DaisyExamples/libDaisy//src/sys/system.h ****         SDRAM,
  73:/Users/ansel/Documents/DaisyExamples/libDaisy//src/sys/system.h ****         QSPI,
  74:/Users/ansel/Documents/DaisyExamples/libDaisy//src/sys/system.h ****         INVALID_ADDRESS,
  75:/Users/ansel/Documents/DaisyExamples/libDaisy//src/sys/system.h ****     };
  76:/Users/ansel/Documents/DaisyExamples/libDaisy//src/sys/system.h **** 
  77:/Users/ansel/Documents/DaisyExamples/libDaisy//src/sys/system.h ****     System() {}
  78:/Users/ansel/Documents/DaisyExamples/libDaisy//src/sys/system.h ****     ~System() {}
  39              		.loc 3 78 5 view .LVU1
  40              		.loc 3 78 5 is_stmt 0 view .LVU2
  41              	.LBE113:
  42              	.LBB114:
  43              	.LBI114:
  44              		.file 4 "/Users/ansel/Documents/DaisyExamples/libDaisy//src/hid/usb.h"
   1:/Users/ansel/Documents/DaisyExamples/libDaisy//src/hid/usb.h **** #pragma once
   2:/Users/ansel/Documents/DaisyExamples/libDaisy//src/hid/usb.h **** #ifndef DSY_HID_USB_H
   3:/Users/ansel/Documents/DaisyExamples/libDaisy//src/hid/usb.h **** #define DSY_HID_USB_H
   4:/Users/ansel/Documents/DaisyExamples/libDaisy//src/hid/usb.h **** #include <stdint.h>
   5:/Users/ansel/Documents/DaisyExamples/libDaisy//src/hid/usb.h **** #include <stdlib.h>
   6:/Users/ansel/Documents/DaisyExamples/libDaisy//src/hid/usb.h **** 
   7:/Users/ansel/Documents/DaisyExamples/libDaisy//src/hid/usb.h **** namespace daisy
   8:/Users/ansel/Documents/DaisyExamples/libDaisy//src/hid/usb.h **** /** @addtogroup human_interface
   9:/Users/ansel/Documents/DaisyExamples/libDaisy//src/hid/usb.h ****     @{
  10:/Users/ansel/Documents/DaisyExamples/libDaisy//src/hid/usb.h **** */
  11:/Users/ansel/Documents/DaisyExamples/libDaisy//src/hid/usb.h **** 
  12:/Users/ansel/Documents/DaisyExamples/libDaisy//src/hid/usb.h **** {
  13:/Users/ansel/Documents/DaisyExamples/libDaisy//src/hid/usb.h **** /** 
  14:/Users/ansel/Documents/DaisyExamples/libDaisy//src/hid/usb.h ****     @brief Interface for initializing and using the USB Peripherals on the daisy
  15:/Users/ansel/Documents/DaisyExamples/libDaisy//src/hid/usb.h ****     @author Stephen Hensley
  16:/Users/ansel/Documents/DaisyExamples/libDaisy//src/hid/usb.h ****     @date December 2019
  17:/Users/ansel/Documents/DaisyExamples/libDaisy//src/hid/usb.h **** */
  18:/Users/ansel/Documents/DaisyExamples/libDaisy//src/hid/usb.h **** class UsbHandle
  19:/Users/ansel/Documents/DaisyExamples/libDaisy//src/hid/usb.h **** {
  20:/Users/ansel/Documents/DaisyExamples/libDaisy//src/hid/usb.h ****   public:
  21:/Users/ansel/Documents/DaisyExamples/libDaisy//src/hid/usb.h ****     /** Return values for USBHandle Functions */
  22:/Users/ansel/Documents/DaisyExamples/libDaisy//src/hid/usb.h ****     enum class Result
  23:/Users/ansel/Documents/DaisyExamples/libDaisy//src/hid/usb.h ****     {
  24:/Users/ansel/Documents/DaisyExamples/libDaisy//src/hid/usb.h ****         OK,
  25:/Users/ansel/Documents/DaisyExamples/libDaisy//src/hid/usb.h ****         ERR,
  26:/Users/ansel/Documents/DaisyExamples/libDaisy//src/hid/usb.h ****     };
  27:/Users/ansel/Documents/DaisyExamples/libDaisy//src/hid/usb.h **** 
  28:/Users/ansel/Documents/DaisyExamples/libDaisy//src/hid/usb.h ****     /** Specified which of the two USB Peripherals to initialize. */
ARM GAS  /var/folders/5r/jcdnhfj535b7rff_ygc02qhr0000gn/T//cct0A4AP.s 			page 4


  29:/Users/ansel/Documents/DaisyExamples/libDaisy//src/hid/usb.h ****     enum UsbPeriph
  30:/Users/ansel/Documents/DaisyExamples/libDaisy//src/hid/usb.h ****     {
  31:/Users/ansel/Documents/DaisyExamples/libDaisy//src/hid/usb.h ****         FS_INTERNAL, /**< Internal pin */
  32:/Users/ansel/Documents/DaisyExamples/libDaisy//src/hid/usb.h ****         FS_EXTERNAL, /**< FS External D+ pin is Pin 38 (GPIO32). FS External D- pin is Pin 37 (GPIO
  33:/Users/ansel/Documents/DaisyExamples/libDaisy//src/hid/usb.h ****         FS_BOTH,     /**< Both */
  34:/Users/ansel/Documents/DaisyExamples/libDaisy//src/hid/usb.h ****     };
  35:/Users/ansel/Documents/DaisyExamples/libDaisy//src/hid/usb.h **** 
  36:/Users/ansel/Documents/DaisyExamples/libDaisy//src/hid/usb.h **** 
  37:/Users/ansel/Documents/DaisyExamples/libDaisy//src/hid/usb.h ****     /** Function called upon reception of a buffer */
  38:/Users/ansel/Documents/DaisyExamples/libDaisy//src/hid/usb.h ****     typedef void (*ReceiveCallback)(uint8_t* buff, uint32_t* len);
  39:/Users/ansel/Documents/DaisyExamples/libDaisy//src/hid/usb.h **** 
  40:/Users/ansel/Documents/DaisyExamples/libDaisy//src/hid/usb.h ****     UsbHandle() {}
  41:/Users/ansel/Documents/DaisyExamples/libDaisy//src/hid/usb.h **** 
  42:/Users/ansel/Documents/DaisyExamples/libDaisy//src/hid/usb.h ****     ~UsbHandle() {}
  45              		.loc 4 42 5 is_stmt 1 view .LVU3
  46              		.loc 4 42 5 is_stmt 0 view .LVU4
  47              	.LBE114:
  48              	.LBB115:
  49              	.LBI115:
  50              		.file 5 "/Users/ansel/Documents/DaisyExamples/libDaisy//src/per/adc.h"
   1:/Users/ansel/Documents/DaisyExamples/libDaisy//src/per/adc.h **** #pragma once
   2:/Users/ansel/Documents/DaisyExamples/libDaisy//src/per/adc.h **** #ifndef DSY_ADC_H
   3:/Users/ansel/Documents/DaisyExamples/libDaisy//src/per/adc.h **** #define DSY_ADC_H /**< Macro */
   4:/Users/ansel/Documents/DaisyExamples/libDaisy//src/per/adc.h **** #include <stdint.h>
   5:/Users/ansel/Documents/DaisyExamples/libDaisy//src/per/adc.h **** #include <stdlib.h>
   6:/Users/ansel/Documents/DaisyExamples/libDaisy//src/per/adc.h **** #include "daisy_core.h"
   7:/Users/ansel/Documents/DaisyExamples/libDaisy//src/per/adc.h **** #include "per/gpio.h"
   8:/Users/ansel/Documents/DaisyExamples/libDaisy//src/per/adc.h **** 
   9:/Users/ansel/Documents/DaisyExamples/libDaisy//src/per/adc.h **** #define DSY_ADC_MAX_CHANNELS 16 /**< Maximum number of ADC channels */
  10:/Users/ansel/Documents/DaisyExamples/libDaisy//src/per/adc.h **** 
  11:/Users/ansel/Documents/DaisyExamples/libDaisy//src/per/adc.h **** namespace daisy
  12:/Users/ansel/Documents/DaisyExamples/libDaisy//src/per/adc.h **** {
  13:/Users/ansel/Documents/DaisyExamples/libDaisy//src/per/adc.h **** /** @addtogroup per_analog
  14:/Users/ansel/Documents/DaisyExamples/libDaisy//src/per/adc.h ****     @{
  15:/Users/ansel/Documents/DaisyExamples/libDaisy//src/per/adc.h **** */
  16:/Users/ansel/Documents/DaisyExamples/libDaisy//src/per/adc.h **** 
  17:/Users/ansel/Documents/DaisyExamples/libDaisy//src/per/adc.h **** /* While there may not be many configuration options here,
  18:/Users/ansel/Documents/DaisyExamples/libDaisy//src/per/adc.h **** using a struct like this allows us to add more configuration
  19:/Users/ansel/Documents/DaisyExamples/libDaisy//src/per/adc.h **** later without breaking existing functionality.
  20:/Users/ansel/Documents/DaisyExamples/libDaisy//src/per/adc.h **** */
  21:/Users/ansel/Documents/DaisyExamples/libDaisy//src/per/adc.h **** 
  22:/Users/ansel/Documents/DaisyExamples/libDaisy//src/per/adc.h **** /** @brief   Configuration Structure for an ADC Channel 
  23:/Users/ansel/Documents/DaisyExamples/libDaisy//src/per/adc.h ****  *  @details This can be used to configure a a single input, 
  24:/Users/ansel/Documents/DaisyExamples/libDaisy//src/per/adc.h ****  *           or a multiplexed input, allowing up to 8 inputs on 
  25:/Users/ansel/Documents/DaisyExamples/libDaisy//src/per/adc.h ****  *           one channel.
  26:/Users/ansel/Documents/DaisyExamples/libDaisy//src/per/adc.h ****  *  @note    Sharing data lines to multiple muxes _is_ possible, but
  27:/Users/ansel/Documents/DaisyExamples/libDaisy//src/per/adc.h ****  *           each channel sharing data lines must be set to the maximum
  28:/Users/ansel/Documents/DaisyExamples/libDaisy//src/per/adc.h ****  *           number of channels, even if some multiplexers have fewer
  29:/Users/ansel/Documents/DaisyExamples/libDaisy//src/per/adc.h ****  *           inputs connected.
  30:/Users/ansel/Documents/DaisyExamples/libDaisy//src/per/adc.h **** */
  31:/Users/ansel/Documents/DaisyExamples/libDaisy//src/per/adc.h **** struct AdcChannelConfig
  32:/Users/ansel/Documents/DaisyExamples/libDaisy//src/per/adc.h **** {
  33:/Users/ansel/Documents/DaisyExamples/libDaisy//src/per/adc.h ****     /** Which pin to use for multiplexing */
  34:/Users/ansel/Documents/DaisyExamples/libDaisy//src/per/adc.h ****     enum MuxPin
  35:/Users/ansel/Documents/DaisyExamples/libDaisy//src/per/adc.h ****     {
  36:/Users/ansel/Documents/DaisyExamples/libDaisy//src/per/adc.h ****         MUX_SEL_0,    /**< & */
  37:/Users/ansel/Documents/DaisyExamples/libDaisy//src/per/adc.h ****         MUX_SEL_1,    /**< & */
ARM GAS  /var/folders/5r/jcdnhfj535b7rff_ygc02qhr0000gn/T//cct0A4AP.s 			page 5


  38:/Users/ansel/Documents/DaisyExamples/libDaisy//src/per/adc.h ****         MUX_SEL_2,    /**< & */
  39:/Users/ansel/Documents/DaisyExamples/libDaisy//src/per/adc.h ****         MUX_SEL_LAST, /**< & */
  40:/Users/ansel/Documents/DaisyExamples/libDaisy//src/per/adc.h ****     };
  41:/Users/ansel/Documents/DaisyExamples/libDaisy//src/per/adc.h **** 
  42:/Users/ansel/Documents/DaisyExamples/libDaisy//src/per/adc.h ****     /** Initializes a single ADC pin as an ADC. 
  43:/Users/ansel/Documents/DaisyExamples/libDaisy//src/per/adc.h ****     \param pin Pin to init.
  44:/Users/ansel/Documents/DaisyExamples/libDaisy//src/per/adc.h ****      */
  45:/Users/ansel/Documents/DaisyExamples/libDaisy//src/per/adc.h ****     void InitSingle(dsy_gpio_pin pin);
  46:/Users/ansel/Documents/DaisyExamples/libDaisy//src/per/adc.h **** 
  47:/Users/ansel/Documents/DaisyExamples/libDaisy//src/per/adc.h ****     /** 
  48:/Users/ansel/Documents/DaisyExamples/libDaisy//src/per/adc.h ****     Initializes a single ADC pin as a Multiplexed ADC.
  49:/Users/ansel/Documents/DaisyExamples/libDaisy//src/per/adc.h ****     Requires a CD405X Multiplexer connected to the pin.
  50:/Users/ansel/Documents/DaisyExamples/libDaisy//src/per/adc.h ****     You only need to supply the mux pins that are required,
  51:/Users/ansel/Documents/DaisyExamples/libDaisy//src/per/adc.h ****     e.g. a 4052 mux would only require mux_0 and mux_1.
  52:/Users/ansel/Documents/DaisyExamples/libDaisy//src/per/adc.h ****     Internal Callbacks handle the pin addressing.
  53:/Users/ansel/Documents/DaisyExamples/libDaisy//src/per/adc.h ****     \param mux_channels must be 1-8
  54:/Users/ansel/Documents/DaisyExamples/libDaisy//src/per/adc.h ****     \param mux_0 First mux pin
  55:/Users/ansel/Documents/DaisyExamples/libDaisy//src/per/adc.h ****     \param mux_1 Second mux pin
  56:/Users/ansel/Documents/DaisyExamples/libDaisy//src/per/adc.h ****     \param mux_2 Third mux pin
  57:/Users/ansel/Documents/DaisyExamples/libDaisy//src/per/adc.h ****     \param adc_pin &
  58:/Users/ansel/Documents/DaisyExamples/libDaisy//src/per/adc.h ****     */
  59:/Users/ansel/Documents/DaisyExamples/libDaisy//src/per/adc.h ****     void InitMux(dsy_gpio_pin adc_pin,
  60:/Users/ansel/Documents/DaisyExamples/libDaisy//src/per/adc.h ****                  size_t       mux_channels,
  61:/Users/ansel/Documents/DaisyExamples/libDaisy//src/per/adc.h ****                  dsy_gpio_pin mux_0,
  62:/Users/ansel/Documents/DaisyExamples/libDaisy//src/per/adc.h ****                  dsy_gpio_pin mux_1 = {DSY_GPIOX, 0},
  63:/Users/ansel/Documents/DaisyExamples/libDaisy//src/per/adc.h ****                  dsy_gpio_pin mux_2 = {DSY_GPIOX, 0});
  64:/Users/ansel/Documents/DaisyExamples/libDaisy//src/per/adc.h **** 
  65:/Users/ansel/Documents/DaisyExamples/libDaisy//src/per/adc.h ****     dsy_gpio pin_;                   /**< & */
  66:/Users/ansel/Documents/DaisyExamples/libDaisy//src/per/adc.h ****     dsy_gpio mux_pin_[MUX_SEL_LAST]; /**< & */
  67:/Users/ansel/Documents/DaisyExamples/libDaisy//src/per/adc.h ****     uint8_t  mux_channels_;          /**< & */
  68:/Users/ansel/Documents/DaisyExamples/libDaisy//src/per/adc.h **** };
  69:/Users/ansel/Documents/DaisyExamples/libDaisy//src/per/adc.h **** 
  70:/Users/ansel/Documents/DaisyExamples/libDaisy//src/per/adc.h **** /**
  71:/Users/ansel/Documents/DaisyExamples/libDaisy//src/per/adc.h ****    @brief Handler for analog to digital conversion
  72:/Users/ansel/Documents/DaisyExamples/libDaisy//src/per/adc.h **** */
  73:/Users/ansel/Documents/DaisyExamples/libDaisy//src/per/adc.h **** class AdcHandle
  74:/Users/ansel/Documents/DaisyExamples/libDaisy//src/per/adc.h **** {
  75:/Users/ansel/Documents/DaisyExamples/libDaisy//src/per/adc.h ****   public:
  76:/Users/ansel/Documents/DaisyExamples/libDaisy//src/per/adc.h ****     /** Supported oversampling amounts */
  77:/Users/ansel/Documents/DaisyExamples/libDaisy//src/per/adc.h ****     enum OverSampling
  78:/Users/ansel/Documents/DaisyExamples/libDaisy//src/per/adc.h ****     {
  79:/Users/ansel/Documents/DaisyExamples/libDaisy//src/per/adc.h ****         OVS_NONE, /**< & */
  80:/Users/ansel/Documents/DaisyExamples/libDaisy//src/per/adc.h ****         OVS_4,    /**< & */
  81:/Users/ansel/Documents/DaisyExamples/libDaisy//src/per/adc.h ****         OVS_8,    /**< & */
  82:/Users/ansel/Documents/DaisyExamples/libDaisy//src/per/adc.h ****         OVS_16,   /**< & */
  83:/Users/ansel/Documents/DaisyExamples/libDaisy//src/per/adc.h ****         OVS_32,   /**< & */
  84:/Users/ansel/Documents/DaisyExamples/libDaisy//src/per/adc.h ****         OVS_64,   /**< & */
  85:/Users/ansel/Documents/DaisyExamples/libDaisy//src/per/adc.h ****         OVS_128,  /**< & */
  86:/Users/ansel/Documents/DaisyExamples/libDaisy//src/per/adc.h ****         OVS_256,  /**< & */
  87:/Users/ansel/Documents/DaisyExamples/libDaisy//src/per/adc.h ****         OVS_512,  /**< & */
  88:/Users/ansel/Documents/DaisyExamples/libDaisy//src/per/adc.h ****         OVS_1024, /**< & */
  89:/Users/ansel/Documents/DaisyExamples/libDaisy//src/per/adc.h ****         OVS_LAST, /**< & */
  90:/Users/ansel/Documents/DaisyExamples/libDaisy//src/per/adc.h ****     };
  91:/Users/ansel/Documents/DaisyExamples/libDaisy//src/per/adc.h **** 
  92:/Users/ansel/Documents/DaisyExamples/libDaisy//src/per/adc.h ****     AdcHandle() {}
  93:/Users/ansel/Documents/DaisyExamples/libDaisy//src/per/adc.h ****     ~AdcHandle() {}
  51              		.loc 5 93 5 is_stmt 1 view .LVU5
ARM GAS  /var/folders/5r/jcdnhfj535b7rff_ygc02qhr0000gn/T//cct0A4AP.s 			page 6


  52              		.loc 5 93 5 is_stmt 0 view .LVU6
  53              	.LBE115:
  54              	.LBB116:
  55              	.LBI116:
  56              		.file 6 "/Users/ansel/Documents/DaisyExamples/libDaisy//src/hid/audio.h"
   1:/Users/ansel/Documents/DaisyExamples/libDaisy//src/hid/audio.h **** #ifndef DSY_AUDIO_H
   2:/Users/ansel/Documents/DaisyExamples/libDaisy//src/hid/audio.h **** #define DSY_AUDIO_H /**< & */
   3:/Users/ansel/Documents/DaisyExamples/libDaisy//src/hid/audio.h **** 
   4:/Users/ansel/Documents/DaisyExamples/libDaisy//src/hid/audio.h **** #include "per/sai.h"
   5:/Users/ansel/Documents/DaisyExamples/libDaisy//src/hid/audio.h **** 
   6:/Users/ansel/Documents/DaisyExamples/libDaisy//src/hid/audio.h **** namespace daisy
   7:/Users/ansel/Documents/DaisyExamples/libDaisy//src/hid/audio.h **** {
   8:/Users/ansel/Documents/DaisyExamples/libDaisy//src/hid/audio.h **** /** @brief Audio Engine Handle
   9:/Users/ansel/Documents/DaisyExamples/libDaisy//src/hid/audio.h ****  *  @ingroup audio 
  10:/Users/ansel/Documents/DaisyExamples/libDaisy//src/hid/audio.h ****  *  @details This class allows for higher level access to an audio engine.
  11:/Users/ansel/Documents/DaisyExamples/libDaisy//src/hid/audio.h ****  *           If you're using a SOM like the DaisySeed or DaisyPatchSM (or any 
  12:/Users/ansel/Documents/DaisyExamples/libDaisy//src/hid/audio.h ****  *            board that includes one of those objects) then the intialization
  13:/Users/ansel/Documents/DaisyExamples/libDaisy//src/hid/audio.h ****  *            is already taken  care of.
  14:/Users/ansel/Documents/DaisyExamples/libDaisy//src/hid/audio.h ****  *           If you're setting up your own custom hardware, or need to make changes
  15:/Users/ansel/Documents/DaisyExamples/libDaisy//src/hid/audio.h ****  *           you will have to take the following steps:
  16:/Users/ansel/Documents/DaisyExamples/libDaisy//src/hid/audio.h ****  *             1. Create and Initialize an SaiHandle or two depending on your requirements
  17:/Users/ansel/Documents/DaisyExamples/libDaisy//src/hid/audio.h ****  *             2. Initialize the Audio Handle with the desired settings and the Initialized SaiHand
  18:/Users/ansel/Documents/DaisyExamples/libDaisy//src/hid/audio.h ****  *             3. If the connected codec requires special configuration or initialization, do so
  19:/Users/ansel/Documents/DaisyExamples/libDaisy//src/hid/audio.h ****  *             4. Write a callback method using either the AudioCallback or the InterleavingAudioCa
  20:/Users/ansel/Documents/DaisyExamples/libDaisy//src/hid/audio.h ****  *             5. Start the Audio using one of the StartAudio function
  21:/Users/ansel/Documents/DaisyExamples/libDaisy//src/hid/audio.h ****  */
  22:/Users/ansel/Documents/DaisyExamples/libDaisy//src/hid/audio.h **** class AudioHandle
  23:/Users/ansel/Documents/DaisyExamples/libDaisy//src/hid/audio.h **** {
  24:/Users/ansel/Documents/DaisyExamples/libDaisy//src/hid/audio.h ****   public:
  25:/Users/ansel/Documents/DaisyExamples/libDaisy//src/hid/audio.h ****     /** Manually configurable details about the Audio Engine */
  26:/Users/ansel/Documents/DaisyExamples/libDaisy//src/hid/audio.h ****     /** TODO: Figure out how to get samplerate in here. */
  27:/Users/ansel/Documents/DaisyExamples/libDaisy//src/hid/audio.h ****     struct Config
  28:/Users/ansel/Documents/DaisyExamples/libDaisy//src/hid/audio.h ****     {
  29:/Users/ansel/Documents/DaisyExamples/libDaisy//src/hid/audio.h ****         /** number of samples to process per callback */
  30:/Users/ansel/Documents/DaisyExamples/libDaisy//src/hid/audio.h ****         size_t blocksize;
  31:/Users/ansel/Documents/DaisyExamples/libDaisy//src/hid/audio.h **** 
  32:/Users/ansel/Documents/DaisyExamples/libDaisy//src/hid/audio.h ****         /**< Sample rate of audio */
  33:/Users/ansel/Documents/DaisyExamples/libDaisy//src/hid/audio.h ****         SaiHandle::Config::SampleRate samplerate;
  34:/Users/ansel/Documents/DaisyExamples/libDaisy//src/hid/audio.h **** 
  35:/Users/ansel/Documents/DaisyExamples/libDaisy//src/hid/audio.h ****         /** factor for adjustment before and after callback for hardware that may have extra headro
  36:/Users/ansel/Documents/DaisyExamples/libDaisy//src/hid/audio.h ****         float postgain;
  37:/Users/ansel/Documents/DaisyExamples/libDaisy//src/hid/audio.h **** 
  38:/Users/ansel/Documents/DaisyExamples/libDaisy//src/hid/audio.h ****         /** factor for additional one-sided compensation to audio path for hardware that may
  39:/Users/ansel/Documents/DaisyExamples/libDaisy//src/hid/audio.h ****          *  have unequal input/output ranges
  40:/Users/ansel/Documents/DaisyExamples/libDaisy//src/hid/audio.h ****          */
  41:/Users/ansel/Documents/DaisyExamples/libDaisy//src/hid/audio.h ****         float output_compensation;
  42:/Users/ansel/Documents/DaisyExamples/libDaisy//src/hid/audio.h **** 
  43:/Users/ansel/Documents/DaisyExamples/libDaisy//src/hid/audio.h ****         /** Sets default values for config struct */
  44:/Users/ansel/Documents/DaisyExamples/libDaisy//src/hid/audio.h ****         Config()
  45:/Users/ansel/Documents/DaisyExamples/libDaisy//src/hid/audio.h ****         : blocksize(48),
  46:/Users/ansel/Documents/DaisyExamples/libDaisy//src/hid/audio.h ****           samplerate(SaiHandle::Config::SampleRate::SAI_48KHZ),
  47:/Users/ansel/Documents/DaisyExamples/libDaisy//src/hid/audio.h ****           postgain(1.f),
  48:/Users/ansel/Documents/DaisyExamples/libDaisy//src/hid/audio.h ****           output_compensation(1.f)
  49:/Users/ansel/Documents/DaisyExamples/libDaisy//src/hid/audio.h ****         {
  50:/Users/ansel/Documents/DaisyExamples/libDaisy//src/hid/audio.h ****         }
  51:/Users/ansel/Documents/DaisyExamples/libDaisy//src/hid/audio.h ****     };
  52:/Users/ansel/Documents/DaisyExamples/libDaisy//src/hid/audio.h **** 
ARM GAS  /var/folders/5r/jcdnhfj535b7rff_ygc02qhr0000gn/T//cct0A4AP.s 			page 7


  53:/Users/ansel/Documents/DaisyExamples/libDaisy//src/hid/audio.h ****     enum class Result
  54:/Users/ansel/Documents/DaisyExamples/libDaisy//src/hid/audio.h ****     {
  55:/Users/ansel/Documents/DaisyExamples/libDaisy//src/hid/audio.h ****         OK,
  56:/Users/ansel/Documents/DaisyExamples/libDaisy//src/hid/audio.h ****         ERR,
  57:/Users/ansel/Documents/DaisyExamples/libDaisy//src/hid/audio.h ****     };
  58:/Users/ansel/Documents/DaisyExamples/libDaisy//src/hid/audio.h **** 
  59:/Users/ansel/Documents/DaisyExamples/libDaisy//src/hid/audio.h ****     /** Non-Interleaving input buffer
  60:/Users/ansel/Documents/DaisyExamples/libDaisy//src/hid/audio.h ****      * Buffer arranged by float[chn][sample] 
  61:/Users/ansel/Documents/DaisyExamples/libDaisy//src/hid/audio.h ****      * const so that the user can't modify the input
  62:/Users/ansel/Documents/DaisyExamples/libDaisy//src/hid/audio.h ****      */
  63:/Users/ansel/Documents/DaisyExamples/libDaisy//src/hid/audio.h ****     typedef const float* const* InputBuffer;
  64:/Users/ansel/Documents/DaisyExamples/libDaisy//src/hid/audio.h **** 
  65:/Users/ansel/Documents/DaisyExamples/libDaisy//src/hid/audio.h ****     /** Non-Interleaving output buffer
  66:/Users/ansel/Documents/DaisyExamples/libDaisy//src/hid/audio.h ****      * Arranged by float[chn][sample] 
  67:/Users/ansel/Documents/DaisyExamples/libDaisy//src/hid/audio.h ****      */
  68:/Users/ansel/Documents/DaisyExamples/libDaisy//src/hid/audio.h ****     typedef float** OutputBuffer;
  69:/Users/ansel/Documents/DaisyExamples/libDaisy//src/hid/audio.h **** 
  70:/Users/ansel/Documents/DaisyExamples/libDaisy//src/hid/audio.h ****     /** Type for a Non-Interleaving audio callback 
  71:/Users/ansel/Documents/DaisyExamples/libDaisy//src/hid/audio.h ****      * Non-Interleaving audio callbacks in daisy will be of this type
  72:/Users/ansel/Documents/DaisyExamples/libDaisy//src/hid/audio.h ****      */
  73:/Users/ansel/Documents/DaisyExamples/libDaisy//src/hid/audio.h ****     typedef void (*AudioCallback)(InputBuffer  in,
  74:/Users/ansel/Documents/DaisyExamples/libDaisy//src/hid/audio.h ****                                   OutputBuffer out,
  75:/Users/ansel/Documents/DaisyExamples/libDaisy//src/hid/audio.h ****                                   size_t       size);
  76:/Users/ansel/Documents/DaisyExamples/libDaisy//src/hid/audio.h **** 
  77:/Users/ansel/Documents/DaisyExamples/libDaisy//src/hid/audio.h ****     /** Interleaving Input buffer
  78:/Users/ansel/Documents/DaisyExamples/libDaisy//src/hid/audio.h ****      ** audio is prepared as { L0, R0, L1, R1, . . . LN, RN }]
  79:/Users/ansel/Documents/DaisyExamples/libDaisy//src/hid/audio.h ****      ** this is const, as the user shouldn't modify it
  80:/Users/ansel/Documents/DaisyExamples/libDaisy//src/hid/audio.h ****     */
  81:/Users/ansel/Documents/DaisyExamples/libDaisy//src/hid/audio.h ****     typedef const float* InterleavingInputBuffer;
  82:/Users/ansel/Documents/DaisyExamples/libDaisy//src/hid/audio.h **** 
  83:/Users/ansel/Documents/DaisyExamples/libDaisy//src/hid/audio.h ****     /** Interleaving Output buffer 
  84:/Users/ansel/Documents/DaisyExamples/libDaisy//src/hid/audio.h ****      ** audio is prepared as { L0, R0, L1, R1, . . . LN, RN }
  85:/Users/ansel/Documents/DaisyExamples/libDaisy//src/hid/audio.h ****     */
  86:/Users/ansel/Documents/DaisyExamples/libDaisy//src/hid/audio.h ****     typedef float* InterleavingOutputBuffer;
  87:/Users/ansel/Documents/DaisyExamples/libDaisy//src/hid/audio.h **** 
  88:/Users/ansel/Documents/DaisyExamples/libDaisy//src/hid/audio.h ****     /** Interleaving Audio Callback 
  89:/Users/ansel/Documents/DaisyExamples/libDaisy//src/hid/audio.h ****      * Interleaving audio callbacks in daisy must be of this type
  90:/Users/ansel/Documents/DaisyExamples/libDaisy//src/hid/audio.h ****      */
  91:/Users/ansel/Documents/DaisyExamples/libDaisy//src/hid/audio.h ****     typedef void (*InterleavingAudioCallback)(InterleavingInputBuffer  in,
  92:/Users/ansel/Documents/DaisyExamples/libDaisy//src/hid/audio.h ****                                               InterleavingOutputBuffer out,
  93:/Users/ansel/Documents/DaisyExamples/libDaisy//src/hid/audio.h ****                                               size_t                   size);
  94:/Users/ansel/Documents/DaisyExamples/libDaisy//src/hid/audio.h **** 
  95:/Users/ansel/Documents/DaisyExamples/libDaisy//src/hid/audio.h ****     AudioHandle() : pimpl_(nullptr) {}
  96:/Users/ansel/Documents/DaisyExamples/libDaisy//src/hid/audio.h ****     ~AudioHandle() {}
  57              		.loc 6 96 5 is_stmt 1 view .LVU7
  58              		.loc 6 96 5 is_stmt 0 view .LVU8
  59              	.LBE116:
  60              		.loc 2 22 19 view .LVU9
  61 0000 7047     		bx	lr
  62              		.cfi_endproc
  63              	.LFE2322:
  65              		.weak	_ZN5daisy9DaisySeedD1Ev
  66              		.thumb_set _ZN5daisy9DaisySeedD1Ev,_ZN5daisy9DaisySeedD2Ev
  67 0002 00BF     		.section	.text._ZN7daisysp10OscillatorD2Ev,"axG",%progbits,_ZN7daisysp10OscillatorD5Ev,comdat
  68              		.align	1
  69              		.p2align 2,,3
  70              		.weak	_ZN7daisysp10OscillatorD2Ev
ARM GAS  /var/folders/5r/jcdnhfj535b7rff_ygc02qhr0000gn/T//cct0A4AP.s 			page 8


  71              		.syntax unified
  72              		.thumb
  73              		.thumb_func
  75              	_ZN7daisysp10OscillatorD2Ev:
  76              	.LVL1:
  77              	.LFB4202:
  78              		.file 7 "/Users/ansel/Documents/DaisyExamples/DaisySP//Source/Synthesis/oscillator.h"
   1:/Users/ansel/Documents/DaisyExamples/DaisySP//Source/Synthesis/oscillator.h **** #pragma once
   2:/Users/ansel/Documents/DaisyExamples/DaisySP//Source/Synthesis/oscillator.h **** #ifndef DSY_OSCILLATOR_H
   3:/Users/ansel/Documents/DaisyExamples/DaisySP//Source/Synthesis/oscillator.h **** #define DSY_OSCILLATOR_H
   4:/Users/ansel/Documents/DaisyExamples/DaisySP//Source/Synthesis/oscillator.h **** #include <stdint.h>
   5:/Users/ansel/Documents/DaisyExamples/DaisySP//Source/Synthesis/oscillator.h **** #include "Utility/dsp.h"
   6:/Users/ansel/Documents/DaisyExamples/DaisySP//Source/Synthesis/oscillator.h **** #ifdef __cplusplus
   7:/Users/ansel/Documents/DaisyExamples/DaisySP//Source/Synthesis/oscillator.h **** 
   8:/Users/ansel/Documents/DaisyExamples/DaisySP//Source/Synthesis/oscillator.h **** namespace daisysp
   9:/Users/ansel/Documents/DaisyExamples/DaisySP//Source/Synthesis/oscillator.h **** {
  10:/Users/ansel/Documents/DaisyExamples/DaisySP//Source/Synthesis/oscillator.h **** /** Synthesis of several waveforms, including polyBLEP bandlimited waveforms.
  11:/Users/ansel/Documents/DaisyExamples/DaisySP//Source/Synthesis/oscillator.h **** */
  12:/Users/ansel/Documents/DaisyExamples/DaisySP//Source/Synthesis/oscillator.h **** class Oscillator
  13:/Users/ansel/Documents/DaisyExamples/DaisySP//Source/Synthesis/oscillator.h **** {
  14:/Users/ansel/Documents/DaisyExamples/DaisySP//Source/Synthesis/oscillator.h ****   public:
  15:/Users/ansel/Documents/DaisyExamples/DaisySP//Source/Synthesis/oscillator.h ****     Oscillator() {}
  16:/Users/ansel/Documents/DaisyExamples/DaisySP//Source/Synthesis/oscillator.h ****     ~Oscillator() {}
  79              		.loc 7 16 5 is_stmt 1 view -0
  80              		.cfi_startproc
  81              		@ args = 0, pretend = 0, frame = 0
  82              		@ frame_needed = 0, uses_anonymous_args = 0
  83              		@ link register save eliminated.
  84              		.loc 7 16 20 is_stmt 0 view .LVU11
  85 0000 7047     		bx	lr
  86              		.cfi_endproc
  87              	.LFE4202:
  89              		.weak	_ZN7daisysp10OscillatorD1Ev
  90              		.thumb_set _ZN7daisysp10OscillatorD1Ev,_ZN7daisysp10OscillatorD2Ev
  91 0002 00BF     		.section	.text._ZN7daisysp6BiquadD2Ev,"axG",%progbits,_ZN7daisysp6BiquadD5Ev,comdat
  92              		.align	1
  93              		.p2align 2,,3
  94              		.weak	_ZN7daisysp6BiquadD2Ev
  95              		.syntax unified
  96              		.thumb
  97              		.thumb_func
  99              	_ZN7daisysp6BiquadD2Ev:
 100              	.LVL2:
 101              	.LFB4481:
 102              		.file 8 "/Users/ansel/Documents/DaisyExamples/DaisySP//Source/Filters/biquad.h"
   1:/Users/ansel/Documents/DaisyExamples/DaisySP//Source/Filters/biquad.h **** #pragma once
   2:/Users/ansel/Documents/DaisyExamples/DaisySP//Source/Filters/biquad.h **** #ifndef DSY_BIQUAD_H
   3:/Users/ansel/Documents/DaisyExamples/DaisySP//Source/Filters/biquad.h **** #define DSY_BIQUAD_H
   4:/Users/ansel/Documents/DaisyExamples/DaisySP//Source/Filters/biquad.h **** 
   5:/Users/ansel/Documents/DaisyExamples/DaisySP//Source/Filters/biquad.h **** #include <stdint.h>
   6:/Users/ansel/Documents/DaisyExamples/DaisySP//Source/Filters/biquad.h **** #ifdef __cplusplus
   7:/Users/ansel/Documents/DaisyExamples/DaisySP//Source/Filters/biquad.h **** 
   8:/Users/ansel/Documents/DaisyExamples/DaisySP//Source/Filters/biquad.h **** namespace daisysp
   9:/Users/ansel/Documents/DaisyExamples/DaisySP//Source/Filters/biquad.h **** {
  10:/Users/ansel/Documents/DaisyExamples/DaisySP//Source/Filters/biquad.h **** /** Two pole recursive filter
  11:/Users/ansel/Documents/DaisyExamples/DaisySP//Source/Filters/biquad.h **** 
  12:/Users/ansel/Documents/DaisyExamples/DaisySP//Source/Filters/biquad.h ****     Original author(s) : Hans Mikelson
ARM GAS  /var/folders/5r/jcdnhfj535b7rff_ygc02qhr0000gn/T//cct0A4AP.s 			page 9


  13:/Users/ansel/Documents/DaisyExamples/DaisySP//Source/Filters/biquad.h **** 
  14:/Users/ansel/Documents/DaisyExamples/DaisySP//Source/Filters/biquad.h ****     Year: 1998
  15:/Users/ansel/Documents/DaisyExamples/DaisySP//Source/Filters/biquad.h **** 
  16:/Users/ansel/Documents/DaisyExamples/DaisySP//Source/Filters/biquad.h ****     Ported from soundpipe by Ben Sergentanis, May 2020
  17:/Users/ansel/Documents/DaisyExamples/DaisySP//Source/Filters/biquad.h **** */
  18:/Users/ansel/Documents/DaisyExamples/DaisySP//Source/Filters/biquad.h **** class Biquad
  19:/Users/ansel/Documents/DaisyExamples/DaisySP//Source/Filters/biquad.h **** {
  20:/Users/ansel/Documents/DaisyExamples/DaisySP//Source/Filters/biquad.h ****   public:
  21:/Users/ansel/Documents/DaisyExamples/DaisySP//Source/Filters/biquad.h ****     Biquad() {}
  22:/Users/ansel/Documents/DaisyExamples/DaisySP//Source/Filters/biquad.h ****     ~Biquad() {}
 103              		.loc 8 22 5 is_stmt 1 view -0
 104              		.cfi_startproc
 105              		@ args = 0, pretend = 0, frame = 0
 106              		@ frame_needed = 0, uses_anonymous_args = 0
 107              		@ link register save eliminated.
 108              		.loc 8 22 16 is_stmt 0 view .LVU13
 109 0000 7047     		bx	lr
 110              		.cfi_endproc
 111              	.LFE4481:
 113              		.weak	_ZN7daisysp6BiquadD1Ev
 114              		.thumb_set _ZN7daisysp6BiquadD1Ev,_ZN7daisysp6BiquadD2Ev
 115 0002 00BF     		.section	.text._Z13AudioCallbackPKPKfPPfj,"ax",%progbits
 116              		.align	1
 117              		.p2align 2,,3
 118              		.global	_Z13AudioCallbackPKPKfPPfj
 119              		.syntax unified
 120              		.thumb
 121              		.thumb_func
 123              	_Z13AudioCallbackPKPKfPPfj:
 124              	.LVL3:
 125              	.LFB4778:
   1:big_knob.cpp  **** #include "daisy_seed.h"
   2:big_knob.cpp  **** #include "daisysp.h"
   3:big_knob.cpp  **** 
   4:big_knob.cpp  **** #define NUM_OUT_PINS 13
   5:big_knob.cpp  **** #define NUM_IN_PINS  9
   6:big_knob.cpp  **** 
   7:big_knob.cpp  **** using namespace daisy;
   8:big_knob.cpp  **** using namespace daisy::seed;
   9:big_knob.cpp  **** using namespace daisysp;
  10:big_knob.cpp  **** 
  11:big_knob.cpp  **** enum struct INS {
  12:big_knob.cpp  ****     FILT1 = 0,
  13:big_knob.cpp  ****     FILT2 = 1,
  14:big_knob.cpp  ****     FILT3 = 2,
  15:big_knob.cpp  ****     ENV1 = 3,
  16:big_knob.cpp  ****     ENV2 = 4,
  17:big_knob.cpp  ****     ENV3 = 5,
  18:big_knob.cpp  ****     REVERB = 6,
  19:big_knob.cpp  ****     DELAY = 7,
  20:big_knob.cpp  ****     SPEAKERS = 8,
  21:big_knob.cpp  **** };
  22:big_knob.cpp  **** 
  23:big_knob.cpp  **** enum struct OUTS {
  24:big_knob.cpp  ****     OSC1 = 0,
  25:big_knob.cpp  ****     OSC2 = 1,
  26:big_knob.cpp  ****     OSC3 = 2,
ARM GAS  /var/folders/5r/jcdnhfj535b7rff_ygc02qhr0000gn/T//cct0A4AP.s 			page 10


  27:big_knob.cpp  ****     NOISE1 = 3,
  28:big_knob.cpp  ****     NOISE2 = 4,
  29:big_knob.cpp  ****     FILT1 = 5,
  30:big_knob.cpp  ****     FILT2 = 6,
  31:big_knob.cpp  ****     FILT3 = 7,
  32:big_knob.cpp  ****     ENV1 = 8,
  33:big_knob.cpp  ****     ENV2 = 9,
  34:big_knob.cpp  ****     ENV3 = 10,
  35:big_knob.cpp  ****     REVERB = 11,
  36:big_knob.cpp  ****     DELAY = 12,
  37:big_knob.cpp  **** };
  38:big_knob.cpp  **** 
  39:big_knob.cpp  **** DaisySeed hw;
  40:big_knob.cpp  **** 
  41:big_knob.cpp  **** Oscillator osc1;
  42:big_knob.cpp  **** Biquad     flt1;
  43:big_knob.cpp  **** 
  44:big_knob.cpp  **** int osc12flt1;
  45:big_knob.cpp  **** 
  46:big_knob.cpp  **** float levels[4];
  47:big_knob.cpp  **** GPIO  outPins[NUM_OUT_PINS];
  48:big_knob.cpp  **** GPIO  inPins[NUM_IN_PINS];
  49:big_knob.cpp  **** int   patchbay[NUM_OUT_PINS][NUM_IN_PINS];
  50:big_knob.cpp  **** 
  51:big_knob.cpp  **** // for 3-way switch inputs
  52:big_knob.cpp  **** int pot_switch(float n) {
  53:big_knob.cpp  ****     float val = n * 3;
  54:big_knob.cpp  ****     if (val > 2) {
  55:big_knob.cpp  ****         return 3;
  56:big_knob.cpp  ****     }
  57:big_knob.cpp  ****     if (val > 1) {
  58:big_knob.cpp  ****         return 2;
  59:big_knob.cpp  ****     }
  60:big_knob.cpp  ****     return 1;
  61:big_knob.cpp  **** }
  62:big_knob.cpp  **** 
  63:big_knob.cpp  **** void AudioCallback(AudioHandle::InputBuffer  in,
  64:big_knob.cpp  ****                    AudioHandle::OutputBuffer out,
  65:big_knob.cpp  ****                    size_t                    size) {
 126              		.loc 1 65 52 is_stmt 1 view -0
 127              		.cfi_startproc
 128              		@ args = 0, pretend = 0, frame = 0
 129              		@ frame_needed = 0, uses_anonymous_args = 0
  66:big_knob.cpp  ****     for (int i = 0; i < 4; i++) {
 130              		.loc 1 66 5 view .LVU15
 131              	.LBB117:
 132              		.loc 1 66 23 view .LVU16
 133              	.LBE117:
  65:big_knob.cpp  ****     for (int i = 0; i < 4; i++) {
 134              		.loc 1 65 52 is_stmt 0 view .LVU17
 135 0000 2DE9F041 		push	{r4, r5, r6, r7, r8, lr}
 136              		.cfi_def_cfa_offset 24
 137              		.cfi_offset 4, -24
 138              		.cfi_offset 5, -20
 139              		.cfi_offset 6, -16
 140              		.cfi_offset 7, -12
 141              		.cfi_offset 8, -8
ARM GAS  /var/folders/5r/jcdnhfj535b7rff_ygc02qhr0000gn/T//cct0A4AP.s 			page 11


 142              		.cfi_offset 14, -4
 143 0004 DFF8E480 		ldr	r8, .L17+20
 144              	.LBB121:
 145              		.loc 1 66 14 view .LVU18
 146 0008 0024     		movs	r4, #0
 147              	.LBE121:
  65:big_knob.cpp  ****     for (int i = 0; i < 4; i++) {
 148              		.loc 1 65 52 view .LVU19
 149 000a 0D46     		mov	r5, r1
 150 000c 1646     		mov	r6, r2
 151 000e 4746     		mov	r7, r8
 152 0010 2DED028B 		vpush.64	{d8}
 153              		.cfi_def_cfa_offset 32
 154              		.cfi_offset 80, -32
 155              		.cfi_offset 81, -28
 156              	.LVL4:
 157              	.L6:
 158              	.LBB122:
 159              	.LBB118:
  67:big_knob.cpp  ****         float value = hw.adc.GetMuxFloat(0, i);
 160              		.loc 1 67 9 is_stmt 1 discriminator 3 view .LVU20
 161              		.loc 1 67 41 is_stmt 0 discriminator 3 view .LVU21
 162 0014 E2B2     		uxtb	r2, r4
 163              	.LBE118:
  66:big_knob.cpp  ****     for (int i = 0; i < 4; i++) {
 164              		.loc 1 66 5 discriminator 3 view .LVU22
 165 0016 0134     		adds	r4, r4, #1
 166              	.LVL5:
 167              	.LBB119:
 168              		.loc 1 67 41 discriminator 3 view .LVU23
 169 0018 0021     		movs	r1, #0
 170 001a 2F48     		ldr	r0, .L17
 171 001c FFF7FEFF 		bl	_ZNK5daisy9AdcHandle11GetMuxFloatEhh
 172              	.LVL6:
  68:big_knob.cpp  ****         levels[i] = value;
 173              		.loc 1 68 9 is_stmt 1 discriminator 3 view .LVU24
 174              	.LBE119:
  66:big_knob.cpp  ****         float value = hw.adc.GetMuxFloat(0, i);
 175              		.loc 1 66 23 is_stmt 0 discriminator 3 view .LVU25
 176 0020 042C     		cmp	r4, #4
 177              	.LBB120:
 178              		.loc 1 68 19 discriminator 3 view .LVU26
 179 0022 A7EC010A 		vstmia.32	r7!, {s0}
 180              	.LBE120:
  66:big_knob.cpp  ****         float value = hw.adc.GetMuxFloat(0, i);
 181              		.loc 1 66 5 is_stmt 1 discriminator 3 view .LVU27
 182              	.LVL7:
  66:big_knob.cpp  ****         float value = hw.adc.GetMuxFloat(0, i);
 183              		.loc 1 66 23 discriminator 3 view .LVU28
 184 0026 F5D1     		bne	.L6
 185              	.LBE122:
  69:big_knob.cpp  ****     }
  70:big_knob.cpp  **** 
  71:big_knob.cpp  ****     // set levels
  72:big_knob.cpp  ****     osc1.SetFreq(levels[0] * 1000);
 186              		.loc 1 72 5 view .LVU29
 187              		.loc 1 72 17 is_stmt 0 view .LVU30
ARM GAS  /var/folders/5r/jcdnhfj535b7rff_ygc02qhr0000gn/T//cct0A4AP.s 			page 12


 188 0028 98ED000A 		vldr.32	s0, [r8]
 189              	.LVL8:
 190              		.loc 1 72 17 view .LVU31
 191 002c 9FED2B8A 		vldr.32	s16, .L17+4
 192              	.LBB123:
 193              	.LBB124:
  17:/Users/ansel/Documents/DaisyExamples/DaisySP//Source/Synthesis/oscillator.h ****     /** Choices for output waveforms, POLYBLEP are appropriately labeled. Others are naive forms.
  18:/Users/ansel/Documents/DaisyExamples/DaisySP//Source/Synthesis/oscillator.h ****     */
  19:/Users/ansel/Documents/DaisyExamples/DaisySP//Source/Synthesis/oscillator.h ****     enum
  20:/Users/ansel/Documents/DaisyExamples/DaisySP//Source/Synthesis/oscillator.h ****     {
  21:/Users/ansel/Documents/DaisyExamples/DaisySP//Source/Synthesis/oscillator.h ****         WAVE_SIN,
  22:/Users/ansel/Documents/DaisyExamples/DaisySP//Source/Synthesis/oscillator.h ****         WAVE_TRI,
  23:/Users/ansel/Documents/DaisyExamples/DaisySP//Source/Synthesis/oscillator.h ****         WAVE_SAW,
  24:/Users/ansel/Documents/DaisyExamples/DaisySP//Source/Synthesis/oscillator.h ****         WAVE_RAMP,
  25:/Users/ansel/Documents/DaisyExamples/DaisySP//Source/Synthesis/oscillator.h ****         WAVE_SQUARE,
  26:/Users/ansel/Documents/DaisyExamples/DaisySP//Source/Synthesis/oscillator.h ****         WAVE_POLYBLEP_TRI,
  27:/Users/ansel/Documents/DaisyExamples/DaisySP//Source/Synthesis/oscillator.h ****         WAVE_POLYBLEP_SAW,
  28:/Users/ansel/Documents/DaisyExamples/DaisySP//Source/Synthesis/oscillator.h ****         WAVE_POLYBLEP_SQUARE,
  29:/Users/ansel/Documents/DaisyExamples/DaisySP//Source/Synthesis/oscillator.h ****         WAVE_LAST,
  30:/Users/ansel/Documents/DaisyExamples/DaisySP//Source/Synthesis/oscillator.h ****     };
  31:/Users/ansel/Documents/DaisyExamples/DaisySP//Source/Synthesis/oscillator.h **** 
  32:/Users/ansel/Documents/DaisyExamples/DaisySP//Source/Synthesis/oscillator.h **** 
  33:/Users/ansel/Documents/DaisyExamples/DaisySP//Source/Synthesis/oscillator.h ****     /** Initializes the Oscillator
  34:/Users/ansel/Documents/DaisyExamples/DaisySP//Source/Synthesis/oscillator.h **** 
  35:/Users/ansel/Documents/DaisyExamples/DaisySP//Source/Synthesis/oscillator.h ****         \param sample_rate - sample rate of the audio engine being run, and the frequency that the 
  36:/Users/ansel/Documents/DaisyExamples/DaisySP//Source/Synthesis/oscillator.h **** 
  37:/Users/ansel/Documents/DaisyExamples/DaisySP//Source/Synthesis/oscillator.h ****         Defaults:
  38:/Users/ansel/Documents/DaisyExamples/DaisySP//Source/Synthesis/oscillator.h ****         - freq_ = 100 Hz
  39:/Users/ansel/Documents/DaisyExamples/DaisySP//Source/Synthesis/oscillator.h ****         - amp_ = 0.5
  40:/Users/ansel/Documents/DaisyExamples/DaisySP//Source/Synthesis/oscillator.h ****         - waveform_ = sine wave.
  41:/Users/ansel/Documents/DaisyExamples/DaisySP//Source/Synthesis/oscillator.h ****     */
  42:/Users/ansel/Documents/DaisyExamples/DaisySP//Source/Synthesis/oscillator.h ****     void Init(float sample_rate)
  43:/Users/ansel/Documents/DaisyExamples/DaisySP//Source/Synthesis/oscillator.h ****     {
  44:/Users/ansel/Documents/DaisyExamples/DaisySP//Source/Synthesis/oscillator.h ****         sr_        = sample_rate;
  45:/Users/ansel/Documents/DaisyExamples/DaisySP//Source/Synthesis/oscillator.h ****         sr_recip_  = 1.0f / sample_rate;
  46:/Users/ansel/Documents/DaisyExamples/DaisySP//Source/Synthesis/oscillator.h ****         freq_      = 100.0f;
  47:/Users/ansel/Documents/DaisyExamples/DaisySP//Source/Synthesis/oscillator.h ****         amp_       = 0.5f;
  48:/Users/ansel/Documents/DaisyExamples/DaisySP//Source/Synthesis/oscillator.h ****         pw_        = 0.5f;
  49:/Users/ansel/Documents/DaisyExamples/DaisySP//Source/Synthesis/oscillator.h ****         pw_rad_    = pw_ * TWOPI_F;
  50:/Users/ansel/Documents/DaisyExamples/DaisySP//Source/Synthesis/oscillator.h ****         phase_     = 0.0f;
  51:/Users/ansel/Documents/DaisyExamples/DaisySP//Source/Synthesis/oscillator.h ****         phase_inc_ = CalcPhaseInc(freq_);
  52:/Users/ansel/Documents/DaisyExamples/DaisySP//Source/Synthesis/oscillator.h ****         waveform_  = WAVE_SIN;
  53:/Users/ansel/Documents/DaisyExamples/DaisySP//Source/Synthesis/oscillator.h ****         eoc_       = true;
  54:/Users/ansel/Documents/DaisyExamples/DaisySP//Source/Synthesis/oscillator.h ****         eor_       = true;
  55:/Users/ansel/Documents/DaisyExamples/DaisySP//Source/Synthesis/oscillator.h ****     }
  56:/Users/ansel/Documents/DaisyExamples/DaisySP//Source/Synthesis/oscillator.h **** 
  57:/Users/ansel/Documents/DaisyExamples/DaisySP//Source/Synthesis/oscillator.h **** 
  58:/Users/ansel/Documents/DaisyExamples/DaisySP//Source/Synthesis/oscillator.h ****     /** Changes the frequency of the Oscillator, and recalculates phase increment.
  59:/Users/ansel/Documents/DaisyExamples/DaisySP//Source/Synthesis/oscillator.h ****     */
  60:/Users/ansel/Documents/DaisyExamples/DaisySP//Source/Synthesis/oscillator.h ****     inline void SetFreq(const float f)
  61:/Users/ansel/Documents/DaisyExamples/DaisySP//Source/Synthesis/oscillator.h ****     {
  62:/Users/ansel/Documents/DaisyExamples/DaisySP//Source/Synthesis/oscillator.h ****         freq_      = f;
 194              		.loc 7 62 20 view .LVU32
 195 0030 2B4C     		ldr	r4, .L17+8
 196              	.LVL9:
 197              		.loc 7 62 20 view .LVU33
 198              	.LBE124:
ARM GAS  /var/folders/5r/jcdnhfj535b7rff_ygc02qhr0000gn/T//cct0A4AP.s 			page 13


 199              	.LBE123:
 200              		.loc 1 72 17 view .LVU34
 201 0032 20EE080A 		vmul.f32	s0, s0, s16
 202              	.LVL10:
 203              	.LBB128:
 204              	.LBI123:
  60:/Users/ansel/Documents/DaisyExamples/DaisySP//Source/Synthesis/oscillator.h ****     {
 205              		.loc 7 60 17 is_stmt 1 view .LVU35
 206              	.LBB125:
 207              		.loc 7 62 9 view .LVU36
 208              	.LBE125:
 209              	.LBE128:
 210              	.LBB129:
 211              	.LBB130:
  23:/Users/ansel/Documents/DaisyExamples/DaisySP//Source/Filters/biquad.h ****     /** Initializes the biquad module.
  24:/Users/ansel/Documents/DaisyExamples/DaisySP//Source/Filters/biquad.h ****         \param sample_rate - The sample rate of the audio engine being run. 
  25:/Users/ansel/Documents/DaisyExamples/DaisySP//Source/Filters/biquad.h ****     */
  26:/Users/ansel/Documents/DaisyExamples/DaisySP//Source/Filters/biquad.h ****     void Init(float sample_rate);
  27:/Users/ansel/Documents/DaisyExamples/DaisySP//Source/Filters/biquad.h **** 
  28:/Users/ansel/Documents/DaisyExamples/DaisySP//Source/Filters/biquad.h **** 
  29:/Users/ansel/Documents/DaisyExamples/DaisySP//Source/Filters/biquad.h ****     /** Filters the input signal
  30:/Users/ansel/Documents/DaisyExamples/DaisySP//Source/Filters/biquad.h ****         \return filtered output
  31:/Users/ansel/Documents/DaisyExamples/DaisySP//Source/Filters/biquad.h ****     */
  32:/Users/ansel/Documents/DaisyExamples/DaisySP//Source/Filters/biquad.h ****     float Process(float in);
  33:/Users/ansel/Documents/DaisyExamples/DaisySP//Source/Filters/biquad.h **** 
  34:/Users/ansel/Documents/DaisyExamples/DaisySP//Source/Filters/biquad.h **** 
  35:/Users/ansel/Documents/DaisyExamples/DaisySP//Source/Filters/biquad.h ****     /** Sets resonance amount
  36:/Users/ansel/Documents/DaisyExamples/DaisySP//Source/Filters/biquad.h ****         \param res : Set filter resonance.
  37:/Users/ansel/Documents/DaisyExamples/DaisySP//Source/Filters/biquad.h ****     */
  38:/Users/ansel/Documents/DaisyExamples/DaisySP//Source/Filters/biquad.h ****     inline void SetRes(float res)
  39:/Users/ansel/Documents/DaisyExamples/DaisySP//Source/Filters/biquad.h ****     {
  40:/Users/ansel/Documents/DaisyExamples/DaisySP//Source/Filters/biquad.h ****         res_ = res;
 212              		.loc 8 40 14 is_stmt 0 view .LVU37
 213 0036 2B4F     		ldr	r7, .L17+12
 214              	.LVL11:
 215              		.loc 8 40 14 view .LVU38
 216              	.LBE130:
 217              	.LBE129:
 218              	.LBB134:
 219              	.LBB126:
  63:/Users/ansel/Documents/DaisyExamples/DaisySP//Source/Synthesis/oscillator.h ****         phase_inc_ = CalcPhaseInc(f);
 220              		.loc 7 63 34 view .LVU39
 221 0038 2046     		mov	r0, r4
  62:/Users/ansel/Documents/DaisyExamples/DaisySP//Source/Synthesis/oscillator.h ****         phase_inc_ = CalcPhaseInc(f);
 222              		.loc 7 62 20 view .LVU40
 223 003a 84ED020A 		vstr.32	s0, [r4, #8]
 224              		.loc 7 63 9 is_stmt 1 view .LVU41
 225              		.loc 7 63 34 is_stmt 0 view .LVU42
 226 003e FFF7FEFF 		bl	_ZN7daisysp10Oscillator12CalcPhaseIncEf
 227              	.LVL12:
 228              		.loc 7 63 34 view .LVU43
 229              	.LBE126:
 230              	.LBE134:
  73:big_knob.cpp  ****     flt1.SetRes(levels[2] * 0.5);
 231              		.loc 1 73 16 view .LVU44
 232 0042 B6EE007A 		vmov.f32	s14, #5.0e-1
 233 0046 D8ED027A 		vldr.32	s15, [r8, #8]
ARM GAS  /var/folders/5r/jcdnhfj535b7rff_ygc02qhr0000gn/T//cct0A4AP.s 			page 14


 234              	.LBB135:
 235              	.LBB131:
  41:/Users/ansel/Documents/DaisyExamples/DaisySP//Source/Filters/biquad.h ****         Reset();
 236              		.loc 8 41 14 view .LVU45
 237 004a 3846     		mov	r0, r7
 238              	.LBE131:
 239              	.LBE135:
 240              	.LBB136:
 241              	.LBB127:
 242              		.loc 7 63 20 view .LVU46
 243 004c 84ED080A 		vstr.32	s0, [r4, #32]
 244              	.LVL13:
 245              		.loc 7 63 20 view .LVU47
 246              	.LBE127:
 247              	.LBE136:
 248              		.loc 1 73 5 is_stmt 1 view .LVU48
 249              	.LBB137:
 250              	.LBI129:
  38:/Users/ansel/Documents/DaisyExamples/DaisySP//Source/Filters/biquad.h ****     {
 251              		.loc 8 38 17 view .LVU49
 252              	.LBB132:
  40:/Users/ansel/Documents/DaisyExamples/DaisySP//Source/Filters/biquad.h ****         Reset();
 253              		.loc 8 40 9 view .LVU50
 254              	.LBE132:
 255              	.LBE137:
 256              		.loc 1 73 16 is_stmt 0 view .LVU51
 257 0050 67EE877A 		vmul.f32	s15, s15, s14
 258              	.LVL14:
 259              	.LBB138:
 260              	.LBB133:
  40:/Users/ansel/Documents/DaisyExamples/DaisySP//Source/Filters/biquad.h ****         Reset();
 261              		.loc 8 40 14 view .LVU52
 262 0054 C7ED027A 		vstr.32	s15, [r7, #8]
 263              		.loc 8 41 9 is_stmt 1 view .LVU53
 264              		.loc 8 41 14 is_stmt 0 view .LVU54
 265 0058 FFF7FEFF 		bl	_ZN7daisysp6Biquad5ResetEv
 266              	.LVL15:
 267              		.loc 8 41 14 view .LVU55
 268              	.LBE133:
 269              	.LBE138:
  74:big_knob.cpp  ****     flt1.SetCutoff(100 + (levels[3] * 1000));
 270              		.loc 1 74 5 is_stmt 1 view .LVU56
 271              		.loc 1 74 19 is_stmt 0 view .LVU57
 272 005c 98ED037A 		vldr.32	s14, [r8, #12]
 273              	.LBB139:
 274              	.LBB140:
  42:/Users/ansel/Documents/DaisyExamples/DaisySP//Source/Filters/biquad.h ****     }
  43:/Users/ansel/Documents/DaisyExamples/DaisySP//Source/Filters/biquad.h **** 
  44:/Users/ansel/Documents/DaisyExamples/DaisySP//Source/Filters/biquad.h **** 
  45:/Users/ansel/Documents/DaisyExamples/DaisySP//Source/Filters/biquad.h ****     /** Sets filter cutoff in Hz
  46:/Users/ansel/Documents/DaisyExamples/DaisySP//Source/Filters/biquad.h ****         \param cutoff : Set filter cutoff.
  47:/Users/ansel/Documents/DaisyExamples/DaisySP//Source/Filters/biquad.h ****     */
  48:/Users/ansel/Documents/DaisyExamples/DaisySP//Source/Filters/biquad.h ****     inline void SetCutoff(float cutoff)
  49:/Users/ansel/Documents/DaisyExamples/DaisySP//Source/Filters/biquad.h ****     {
  50:/Users/ansel/Documents/DaisyExamples/DaisySP//Source/Filters/biquad.h ****         cutoff_ = cutoff;
  51:/Users/ansel/Documents/DaisyExamples/DaisySP//Source/Filters/biquad.h ****         Reset();
 275              		.loc 8 51 14 view .LVU58
ARM GAS  /var/folders/5r/jcdnhfj535b7rff_ygc02qhr0000gn/T//cct0A4AP.s 			page 15


 276 0060 3846     		mov	r0, r7
 277              	.LBE140:
 278              	.LBE139:
 279              		.loc 1 74 19 view .LVU59
 280 0062 DFED217A 		vldr.32	s15, .L17+16
 281 0066 E7EE087A 		vfma.f32	s15, s14, s16
 282              	.LVL16:
 283              	.LBB142:
 284              	.LBI139:
  48:/Users/ansel/Documents/DaisyExamples/DaisySP//Source/Filters/biquad.h ****     {
 285              		.loc 8 48 17 is_stmt 1 view .LVU60
 286              	.LBB141:
  50:/Users/ansel/Documents/DaisyExamples/DaisySP//Source/Filters/biquad.h ****         Reset();
 287              		.loc 8 50 9 view .LVU61
  50:/Users/ansel/Documents/DaisyExamples/DaisySP//Source/Filters/biquad.h ****         Reset();
 288              		.loc 8 50 17 is_stmt 0 view .LVU62
 289 006a C7ED017A 		vstr.32	s15, [r7, #4]
 290              		.loc 8 51 9 is_stmt 1 view .LVU63
 291              		.loc 8 51 14 is_stmt 0 view .LVU64
 292 006e FFF7FEFF 		bl	_ZN7daisysp6Biquad5ResetEv
 293              	.LVL17:
 294              		.loc 8 51 14 view .LVU65
 295              	.LBE141:
 296              	.LBE142:
  75:big_knob.cpp  **** 
  76:big_knob.cpp  ****     int wf = pot_switch(levels[1]);
 297              		.loc 1 76 5 is_stmt 1 view .LVU66
 298              	.LBB143:
 299              	.LBI143:
  52:big_knob.cpp  ****     float val = n * 3;
 300              		.loc 1 52 5 view .LVU67
 301              	.LBB144:
  53:big_knob.cpp  ****     if (val > 2) {
 302              		.loc 1 53 5 view .LVU68
  53:big_knob.cpp  ****     if (val > 2) {
 303              		.loc 1 53 11 is_stmt 0 view .LVU69
 304 0072 F0EE086A 		vmov.f32	s13, #3.0e+0
 305 0076 D8ED017A 		vldr.32	s15, [r8, #4]
  54:big_knob.cpp  ****         return 3;
 306              		.loc 1 54 5 view .LVU70
 307 007a B0EE007A 		vmov.f32	s14, #2.0e+0
  53:big_knob.cpp  ****     if (val > 2) {
 308              		.loc 1 53 11 view .LVU71
 309 007e 67EEA67A 		vmul.f32	s15, s15, s13
 310              	.LVL18:
  54:big_knob.cpp  ****         return 3;
 311              		.loc 1 54 5 is_stmt 1 view .LVU72
 312 0082 F4EEC77A 		vcmpe.f32	s15, s14
 313 0086 F1EE10FA 		vmrs	APSR_nzcv, FPSCR
 314 008a 22DC     		bgt	.L10
  57:big_knob.cpp  ****         return 2;
 315              		.loc 1 57 5 view .LVU73
 316 008c B7EE007A 		vmov.f32	s14, #1.0e+0
 317 0090 F4EEC77A 		vcmpe.f32	s15, s14
 318 0094 F1EE10FA 		vmrs	APSR_nzcv, FPSCR
 319 0098 CCBF     		ite	gt
 320 009a 0123     		movgt	r3, #1
ARM GAS  /var/folders/5r/jcdnhfj535b7rff_ygc02qhr0000gn/T//cct0A4AP.s 			page 16


 321 009c 0023     		movle	r3, #0
 322              	.L7:
 323              	.LVL19:
  57:big_knob.cpp  ****         return 2;
 324              		.loc 1 57 5 is_stmt 0 view .LVU74
 325              	.LBE144:
 326              	.LBE143:
 327              	.LBB146:
 328              	.LBB147:
  64:/Users/ansel/Documents/DaisyExamples/DaisySP//Source/Synthesis/oscillator.h ****     }
  65:/Users/ansel/Documents/DaisyExamples/DaisySP//Source/Synthesis/oscillator.h **** 
  66:/Users/ansel/Documents/DaisyExamples/DaisySP//Source/Synthesis/oscillator.h **** 
  67:/Users/ansel/Documents/DaisyExamples/DaisySP//Source/Synthesis/oscillator.h ****     /** Sets the amplitude of the waveform.
  68:/Users/ansel/Documents/DaisyExamples/DaisySP//Source/Synthesis/oscillator.h ****     */
  69:/Users/ansel/Documents/DaisyExamples/DaisySP//Source/Synthesis/oscillator.h ****     inline void SetAmp(const float a) { amp_ = a; }
  70:/Users/ansel/Documents/DaisyExamples/DaisySP//Source/Synthesis/oscillator.h ****     /** Sets the waveform to be synthesized by the Process() function.
  71:/Users/ansel/Documents/DaisyExamples/DaisySP//Source/Synthesis/oscillator.h ****     */
  72:/Users/ansel/Documents/DaisyExamples/DaisySP//Source/Synthesis/oscillator.h ****     inline void SetWaveform(const uint8_t wf)
  73:/Users/ansel/Documents/DaisyExamples/DaisySP//Source/Synthesis/oscillator.h ****     {
  74:/Users/ansel/Documents/DaisyExamples/DaisySP//Source/Synthesis/oscillator.h ****         waveform_ = wf < WAVE_LAST ? wf : WAVE_SIN;
 329              		.loc 7 74 19 discriminator 1 view .LVU75
 330 009e 2370     		strb	r3, [r4]
 331              	.LVL20:
 332              		.loc 7 74 19 discriminator 1 view .LVU76
 333              	.LBE147:
 334              	.LBE146:
 335              	.LBB148:
  77:big_knob.cpp  ****     if (wf == 1) {
  78:big_knob.cpp  ****         osc1.SetWaveform(Oscillator::WAVE_SIN);
  79:big_knob.cpp  ****     } else if (wf == 2) {
  80:big_knob.cpp  ****         osc1.SetWaveform(Oscillator::WAVE_TRI);
  81:big_knob.cpp  ****     } else if (wf == 3) {
  82:big_knob.cpp  ****         osc1.SetWaveform(Oscillator::WAVE_SAW);
  83:big_knob.cpp  ****     }
  84:big_knob.cpp  **** 
  85:big_knob.cpp  ****     // generate samples
  86:big_knob.cpp  ****     for (size_t i = 0; i < size; i++) {
 336              		.loc 1 86 26 is_stmt 1 discriminator 1 view .LVU77
 337 00a0 9EB1     		cbz	r6, .L5
 338              		.loc 1 86 26 is_stmt 0 view .LVU78
 339 00a2 0024     		movs	r4, #0
 340              	.LVL21:
 341              	.L9:
 342              	.LBB149:
  87:big_knob.cpp  ****         float sig = osc1.Process();
 343              		.loc 1 87 9 is_stmt 1 discriminator 3 view .LVU79
 344              		.loc 1 87 33 is_stmt 0 discriminator 3 view .LVU80
 345 00a4 0E48     		ldr	r0, .L17+8
 346 00a6 FFF7FEFF 		bl	_ZN7daisysp10Oscillator7ProcessEv
 347              	.LVL22:
  88:big_knob.cpp  ****         sig = flt1.Process(sig);
 348              		.loc 1 88 9 is_stmt 1 discriminator 3 view .LVU81
 349              		.loc 1 88 27 is_stmt 0 discriminator 3 view .LVU82
 350 00aa 0E48     		ldr	r0, .L17+12
 351 00ac FFF7FEFF 		bl	_ZN7daisysp6Biquad7ProcessEf
 352              	.LVL23:
  89:big_knob.cpp  **** 
ARM GAS  /var/folders/5r/jcdnhfj535b7rff_ygc02qhr0000gn/T//cct0A4AP.s 			page 17


  90:big_knob.cpp  ****         out[0][i] = sig;
  91:big_knob.cpp  ****         out[1][i] = sig;
 353              		.loc 1 91 19 discriminator 3 view .LVU83
 354 00b0 D5E90003 		ldrd	r0, r3, [r5]
 355              	.LVL24:
  90:big_knob.cpp  ****         out[1][i] = sig;
 356              		.loc 1 90 9 is_stmt 1 discriminator 3 view .LVU84
  90:big_knob.cpp  ****         out[1][i] = sig;
 357              		.loc 1 90 19 is_stmt 0 discriminator 3 view .LVU85
 358 00b4 00EB8400 		add	r0, r0, r4, lsl #2
 359              		.loc 1 91 19 discriminator 3 view .LVU86
 360 00b8 03EB8403 		add	r3, r3, r4, lsl #2
 361              	.LBE149:
  86:big_knob.cpp  ****         float sig = osc1.Process();
 362              		.loc 1 86 5 discriminator 3 view .LVU87
 363 00bc 0134     		adds	r4, r4, #1
 364              	.LVL25:
 365              	.LBB150:
  90:big_knob.cpp  ****         out[1][i] = sig;
 366              		.loc 1 90 19 discriminator 3 view .LVU88
 367 00be 80ED000A 		vstr.32	s0, [r0]
 368              		.loc 1 91 9 is_stmt 1 discriminator 3 view .LVU89
 369              	.LBE150:
  86:big_knob.cpp  ****         float sig = osc1.Process();
 370              		.loc 1 86 26 is_stmt 0 discriminator 3 view .LVU90
 371 00c2 A642     		cmp	r6, r4
 372              	.LBB151:
 373              		.loc 1 91 19 discriminator 3 view .LVU91
 374 00c4 83ED000A 		vstr.32	s0, [r3]
 375              	.LBE151:
  86:big_knob.cpp  ****         float sig = osc1.Process();
 376              		.loc 1 86 5 is_stmt 1 discriminator 3 view .LVU92
 377              	.LVL26:
  86:big_knob.cpp  ****         float sig = osc1.Process();
 378              		.loc 1 86 26 discriminator 3 view .LVU93
 379 00c8 ECD1     		bne	.L9
 380              	.LVL27:
 381              	.L5:
  86:big_knob.cpp  ****         float sig = osc1.Process();
 382              		.loc 1 86 26 is_stmt 0 discriminator 3 view .LVU94
 383              	.LBE148:
  92:big_knob.cpp  ****     }
  93:big_knob.cpp  **** }
 384              		.loc 1 93 1 view .LVU95
 385 00ca BDEC028B 		vldm	sp!, {d8}
 386              		.cfi_remember_state
 387              		.cfi_restore 80
 388              		.cfi_restore 81
 389              		.cfi_def_cfa_offset 24
 390 00ce BDE8F081 		pop	{r4, r5, r6, r7, r8, pc}
 391              	.LVL28:
 392              	.L10:
 393              		.cfi_restore_state
 394              	.LBB152:
 395              	.LBB145:
 396              		.loc 1 93 1 view .LVU96
 397 00d2 0223     		movs	r3, #2
ARM GAS  /var/folders/5r/jcdnhfj535b7rff_ygc02qhr0000gn/T//cct0A4AP.s 			page 18


 398 00d4 E3E7     		b	.L7
 399              	.L18:
 400 00d6 00BF     		.align	2
 401              	.L17:
 402 00d8 18000000 		.word	hw+24
 403 00dc 00007A44 		.word	1148846080
 404 00e0 00000000 		.word	osc1
 405 00e4 00000000 		.word	flt1
 406 00e8 0000C842 		.word	1120403456
 407 00ec 00000000 		.word	levels
 408              	.LBE145:
 409              	.LBE152:
 410              		.cfi_endproc
 411              	.LFE4778:
 413              		.section	.text._Z10pot_switchf,"ax",%progbits
 414              		.align	1
 415              		.p2align 2,,3
 416              		.global	_Z10pot_switchf
 417              		.syntax unified
 418              		.thumb
 419              		.thumb_func
 421              	_Z10pot_switchf:
 422              	.LVL29:
 423              	.LFB4777:
  52:big_knob.cpp  ****     float val = n * 3;
 424              		.loc 1 52 25 is_stmt 1 view -0
 425              		.cfi_startproc
 426              		@ args = 0, pretend = 0, frame = 0
 427              		@ frame_needed = 0, uses_anonymous_args = 0
 428              		@ link register save eliminated.
  53:big_knob.cpp  ****     if (val > 2) {
 429              		.loc 1 53 5 view .LVU98
  53:big_knob.cpp  ****     if (val > 2) {
 430              		.loc 1 53 11 is_stmt 0 view .LVU99
 431 0000 B0EE087A 		vmov.f32	s14, #3.0e+0
  54:big_knob.cpp  ****         return 3;
 432              		.loc 1 54 5 view .LVU100
 433 0004 F0EE007A 		vmov.f32	s15, #2.0e+0
  53:big_knob.cpp  ****     if (val > 2) {
 434              		.loc 1 53 11 view .LVU101
 435 0008 20EE070A 		vmul.f32	s0, s0, s14
 436              	.LVL30:
  54:big_knob.cpp  ****         return 3;
 437              		.loc 1 54 5 is_stmt 1 view .LVU102
 438 000c B4EEE70A 		vcmpe.f32	s0, s15
 439 0010 F1EE10FA 		vmrs	APSR_nzcv, FPSCR
 440 0014 09DC     		bgt	.L21
  57:big_knob.cpp  ****         return 2;
 441              		.loc 1 57 5 view .LVU103
 442 0016 F7EE007A 		vmov.f32	s15, #1.0e+0
  60:big_knob.cpp  **** }
 443              		.loc 1 60 12 is_stmt 0 view .LVU104
 444 001a B4EEE70A 		vcmpe.f32	s0, s15
 445 001e F1EE10FA 		vmrs	APSR_nzcv, FPSCR
 446 0022 CCBF     		ite	gt
 447 0024 0220     		movgt	r0, #2
 448 0026 0120     		movle	r0, #1
ARM GAS  /var/folders/5r/jcdnhfj535b7rff_ygc02qhr0000gn/T//cct0A4AP.s 			page 19


 449 0028 7047     		bx	lr
 450              	.L21:
  55:big_knob.cpp  ****     }
 451              		.loc 1 55 16 view .LVU105
 452 002a 0320     		movs	r0, #3
  61:big_knob.cpp  **** 
 453              		.loc 1 61 1 view .LVU106
 454 002c 7047     		bx	lr
 455              		.cfi_endproc
 456              	.LFE4777:
 458 002e 00BF     		.section	.text.startup.main,"ax",%progbits
 459              		.align	1
 460              		.p2align 2,,3
 461              		.global	main
 462              		.syntax unified
 463              		.thumb
 464              		.thumb_func
 466              	main:
 467              	.LFB4779:
  94:big_knob.cpp  **** 
  95:big_knob.cpp  **** int main(void) {
 468              		.loc 1 95 16 is_stmt 1 view -0
 469              		.cfi_startproc
 470              		@ args = 0, pretend = 0, frame = 40
 471              		@ frame_needed = 0, uses_anonymous_args = 0
  96:big_knob.cpp  ****     hw.Init();
 472              		.loc 1 96 5 view .LVU108
  95:big_knob.cpp  ****     hw.Init();
 473              		.loc 1 95 16 is_stmt 0 view .LVU109
 474 0000 2DE9F043 		push	{r4, r5, r6, r7, r8, r9, lr}
 475              		.cfi_def_cfa_offset 28
 476              		.cfi_offset 4, -28
 477              		.cfi_offset 5, -24
 478              		.cfi_offset 6, -20
 479              		.cfi_offset 7, -16
 480              		.cfi_offset 8, -12
 481              		.cfi_offset 9, -8
 482              		.cfi_offset 14, -4
 483              		.loc 1 96 12 view .LVU110
 484 0004 0021     		movs	r1, #0
  95:big_knob.cpp  ****     hw.Init();
 485              		.loc 1 95 16 view .LVU111
 486 0006 8DB0     		sub	sp, sp, #52
 487              		.cfi_def_cfa_offset 80
 488              		.loc 1 96 12 view .LVU112
 489 0008 3F48     		ldr	r0, .L30
 490              	.LBB167:
 491              	.LBB168:
  52:/Users/ansel/Documents/DaisyExamples/DaisySP//Source/Synthesis/oscillator.h ****         eoc_       = true;
 492              		.loc 7 52 20 view .LVU113
 493 000a 0025     		movs	r5, #0
 494              	.LBE168:
 495              	.LBE167:
 496              		.loc 1 96 12 view .LVU114
 497 000c FFF7FEFF 		bl	_ZN5daisy9DaisySeed4InitEb
 498              	.LVL31:
  97:big_knob.cpp  **** 
ARM GAS  /var/folders/5r/jcdnhfj535b7rff_ygc02qhr0000gn/T//cct0A4AP.s 			page 20


  98:big_knob.cpp  ****     // Oscillators setup
  99:big_knob.cpp  ****     osc1.Init(hw.AudioSampleRate());
 499              		.loc 1 99 5 is_stmt 1 view .LVU115
 500              		.loc 1 99 14 is_stmt 0 view .LVU116
 501 0010 3D48     		ldr	r0, .L30
 502 0012 FFF7FEFF 		bl	_ZN5daisy9DaisySeed15AudioSampleRateEv
 503              	.LVL32:
 504              	.LBB172:
 505              	.LBB169:
  45:/Users/ansel/Documents/DaisyExamples/DaisySP//Source/Synthesis/oscillator.h ****         freq_      = 100.0f;
 506              		.loc 7 45 27 view .LVU117
 507 0016 F7EE006A 		vmov.f32	s13, #1.0e+0
 508              	.LBE169:
 509              	.LBE172:
 510              		.loc 1 99 14 view .LVU118
 511 001a F0EE407A 		vmov.f32	s15, s0
 512              	.LVL33:
 513              	.LBB173:
 514              	.LBI167:
  42:/Users/ansel/Documents/DaisyExamples/DaisySP//Source/Synthesis/oscillator.h ****     {
 515              		.loc 7 42 10 is_stmt 1 view .LVU119
 516              	.LBB170:
  44:/Users/ansel/Documents/DaisyExamples/DaisySP//Source/Synthesis/oscillator.h ****         sr_recip_  = 1.0f / sample_rate;
 517              		.loc 7 44 9 view .LVU120
  44:/Users/ansel/Documents/DaisyExamples/DaisySP//Source/Synthesis/oscillator.h ****         sr_recip_  = 1.0f / sample_rate;
 518              		.loc 7 44 20 is_stmt 0 view .LVU121
 519 001e 3B4C     		ldr	r4, .L30+4
  49:/Users/ansel/Documents/DaisyExamples/DaisySP//Source/Synthesis/oscillator.h ****         phase_     = 0.0f;
 520              		.loc 7 49 20 view .LVU122
 521 0020 3B49     		ldr	r1, .L30+8
  50:/Users/ansel/Documents/DaisyExamples/DaisySP//Source/Synthesis/oscillator.h ****         phase_inc_ = CalcPhaseInc(freq_);
 522              		.loc 7 50 20 view .LVU123
 523 0022 0022     		movs	r2, #0
  47:/Users/ansel/Documents/DaisyExamples/DaisySP//Source/Synthesis/oscillator.h ****         pw_        = 0.5f;
 524              		.loc 7 47 20 view .LVU124
 525 0024 4FF07C53 		mov	r3, #1056964608
  46:/Users/ansel/Documents/DaisyExamples/DaisySP//Source/Synthesis/oscillator.h ****         amp_       = 0.5f;
 526              		.loc 7 46 20 view .LVU125
 527 0028 9FED3A0A 		vldr.32	s0, .L30+12
 528              	.LVL34:
  45:/Users/ansel/Documents/DaisyExamples/DaisySP//Source/Synthesis/oscillator.h ****         freq_      = 100.0f;
 529              		.loc 7 45 27 view .LVU126
 530 002c 86EEA77A 		vdiv.f32	s14, s13, s15
  51:/Users/ansel/Documents/DaisyExamples/DaisySP//Source/Synthesis/oscillator.h ****         waveform_  = WAVE_SIN;
 531              		.loc 7 51 34 view .LVU127
 532 0030 2046     		mov	r0, r4
  44:/Users/ansel/Documents/DaisyExamples/DaisySP//Source/Synthesis/oscillator.h ****         sr_recip_  = 1.0f / sample_rate;
 533              		.loc 7 44 20 view .LVU128
 534 0032 C4ED057A 		vstr.32	s15, [r4, #20]
  45:/Users/ansel/Documents/DaisyExamples/DaisySP//Source/Synthesis/oscillator.h ****         freq_      = 100.0f;
 535              		.loc 7 45 9 is_stmt 1 view .LVU129
 536 0036 0226     		movs	r6, #2
  49:/Users/ansel/Documents/DaisyExamples/DaisySP//Source/Synthesis/oscillator.h ****         phase_     = 0.0f;
 537              		.loc 7 49 20 is_stmt 0 view .LVU130
 538 0038 2161     		str	r1, [r4, #16]	@ float
  50:/Users/ansel/Documents/DaisyExamples/DaisySP//Source/Synthesis/oscillator.h ****         phase_inc_ = CalcPhaseInc(freq_);
 539              		.loc 7 50 20 view .LVU131
ARM GAS  /var/folders/5r/jcdnhfj535b7rff_ygc02qhr0000gn/T//cct0A4AP.s 			page 21


 540 003a E261     		str	r2, [r4, #28]	@ float
  47:/Users/ansel/Documents/DaisyExamples/DaisySP//Source/Synthesis/oscillator.h ****         pw_        = 0.5f;
 541              		.loc 7 47 20 view .LVU132
 542 003c 6360     		str	r3, [r4, #4]	@ float
  48:/Users/ansel/Documents/DaisyExamples/DaisySP//Source/Synthesis/oscillator.h ****         pw_rad_    = pw_ * TWOPI_F;
 543              		.loc 7 48 20 view .LVU133
 544 003e E360     		str	r3, [r4, #12]	@ float
  46:/Users/ansel/Documents/DaisyExamples/DaisySP//Source/Synthesis/oscillator.h ****         amp_       = 0.5f;
 545              		.loc 7 46 20 view .LVU134
 546 0040 84ED020A 		vstr.32	s0, [r4, #8]
 547 0044 DFF8F090 		ldr	r9, .L30+48
  45:/Users/ansel/Documents/DaisyExamples/DaisySP//Source/Synthesis/oscillator.h ****         freq_      = 100.0f;
 548              		.loc 7 45 20 view .LVU135
 549 0048 84ED067A 		vstr.32	s14, [r4, #24]
  46:/Users/ansel/Documents/DaisyExamples/DaisySP//Source/Synthesis/oscillator.h ****         amp_       = 0.5f;
 550              		.loc 7 46 9 is_stmt 1 view .LVU136
  47:/Users/ansel/Documents/DaisyExamples/DaisySP//Source/Synthesis/oscillator.h ****         pw_        = 0.5f;
 551              		.loc 7 47 9 view .LVU137
  48:/Users/ansel/Documents/DaisyExamples/DaisySP//Source/Synthesis/oscillator.h ****         pw_rad_    = pw_ * TWOPI_F;
 552              		.loc 7 48 9 view .LVU138
  49:/Users/ansel/Documents/DaisyExamples/DaisySP//Source/Synthesis/oscillator.h ****         phase_     = 0.0f;
 553              		.loc 7 49 9 view .LVU139
  50:/Users/ansel/Documents/DaisyExamples/DaisySP//Source/Synthesis/oscillator.h ****         phase_inc_ = CalcPhaseInc(freq_);
 554              		.loc 7 50 9 view .LVU140
  51:/Users/ansel/Documents/DaisyExamples/DaisySP//Source/Synthesis/oscillator.h ****         waveform_  = WAVE_SIN;
 555              		.loc 7 51 9 view .LVU141
  51:/Users/ansel/Documents/DaisyExamples/DaisySP//Source/Synthesis/oscillator.h ****         waveform_  = WAVE_SIN;
 556              		.loc 7 51 34 is_stmt 0 view .LVU142
 557 004c FFF7FEFF 		bl	_ZN7daisysp10Oscillator12CalcPhaseIncEf
 558              	.LVL35:
  54:/Users/ansel/Documents/DaisyExamples/DaisySP//Source/Synthesis/oscillator.h ****     }
 559              		.loc 7 54 20 view .LVU143
 560 0050 40F20113 		movw	r3, #257
 561              	.LBE170:
 562              	.LBE173:
 100:big_knob.cpp  **** 
 101:big_knob.cpp  ****     // Filters setup
 102:big_knob.cpp  ****     flt1.Init(hw.AudioSampleRate());
 563              		.loc 1 102 14 view .LVU144
 564 0054 2C48     		ldr	r0, .L30
 565              	.LBB174:
 566              	.LBB171:
  52:/Users/ansel/Documents/DaisyExamples/DaisySP//Source/Synthesis/oscillator.h ****         eoc_       = true;
 567              		.loc 7 52 20 view .LVU145
 568 0056 2570     		strb	r5, [r4]
  54:/Users/ansel/Documents/DaisyExamples/DaisySP//Source/Synthesis/oscillator.h ****     }
 569              		.loc 7 54 20 view .LVU146
 570 0058 A385     		strh	r3, [r4, #44]	@ movhi
  51:/Users/ansel/Documents/DaisyExamples/DaisySP//Source/Synthesis/oscillator.h ****         waveform_  = WAVE_SIN;
 571              		.loc 7 51 20 view .LVU147
 572 005a 84ED080A 		vstr.32	s0, [r4, #32]
  52:/Users/ansel/Documents/DaisyExamples/DaisySP//Source/Synthesis/oscillator.h ****         eoc_       = true;
 573              		.loc 7 52 9 is_stmt 1 view .LVU148
  53:/Users/ansel/Documents/DaisyExamples/DaisySP//Source/Synthesis/oscillator.h ****         eor_       = true;
 574              		.loc 7 53 9 view .LVU149
  54:/Users/ansel/Documents/DaisyExamples/DaisySP//Source/Synthesis/oscillator.h ****     }
 575              		.loc 7 54 9 view .LVU150
ARM GAS  /var/folders/5r/jcdnhfj535b7rff_ygc02qhr0000gn/T//cct0A4AP.s 			page 22


 576              	.LVL36:
  54:/Users/ansel/Documents/DaisyExamples/DaisySP//Source/Synthesis/oscillator.h ****     }
 577              		.loc 7 54 9 is_stmt 0 view .LVU151
 578              	.LBE171:
 579              	.LBE174:
 580              		.loc 1 102 5 is_stmt 1 view .LVU152
 581              		.loc 1 102 14 is_stmt 0 view .LVU153
 582 005e FFF7FEFF 		bl	_ZN5daisy9DaisySeed15AudioSampleRateEv
 583              	.LVL37:
 584 0062 2D48     		ldr	r0, .L30+16
 585 0064 FFF7FEFF 		bl	_ZN7daisysp6Biquad4InitEf
 586              	.LVL38:
 103:big_knob.cpp  **** 
 104:big_knob.cpp  ****     // adc setup
 105:big_knob.cpp  ****     AdcChannelConfig adc_config;
 587              		.loc 1 105 5 is_stmt 1 view .LVU154
 106:big_knob.cpp  ****     adc_config.InitMux(A0, 8, D10, D11, D12);
 588              		.loc 1 106 5 view .LVU155
 589              		.loc 1 106 5 is_stmt 0 view .LVU156
 590 0068 40F20153 		movw	r3, #1281
 591 006c 40F60102 		movw	r2, #2049
 592 0070 40F60111 		movw	r1, #2305
 593 0074 ADF80C60 		strh	r6, [sp, #12]	@ movhi
 594              	.LVL39:
 595              		.loc 1 106 23 view .LVU157
 596 0078 07A8     		add	r0, sp, #28
 597 007a ADF81030 		strh	r3, [sp, #16]	@ movhi
 598              	.LVL40:
 599              		.loc 1 106 23 view .LVU158
 600 007e 049B     		ldr	r3, [sp, #16]
 601 0080 ADF80020 		strh	r2, [sp]	@ movhi
 602 0084 0822     		movs	r2, #8
 603 0086 ADF80410 		strh	r1, [sp, #4]	@ movhi
 604 008a 0399     		ldr	r1, [sp, #12]
 605 008c FFF7FEFF 		bl	_ZN5daisy16AdcChannelConfig7InitMuxE12dsy_gpio_pinjS1_S1_S1_
 606              	.LVL41:
 107:big_knob.cpp  ****     hw.adc.Init(&adc_config, 1);
 607              		.loc 1 107 5 is_stmt 1 view .LVU159
 608              		.loc 1 107 16 is_stmt 0 view .LVU160
 609 0090 0423     		movs	r3, #4
 610 0092 0122     		movs	r2, #1
 611 0094 07A9     		add	r1, sp, #28
 612 0096 2148     		ldr	r0, .L30+20
 613 0098 FFF7FEFF 		bl	_ZN5daisy9AdcHandle4InitEPNS_16AdcChannelConfigEjNS0_12OverSamplingE
 614              	.LVL42:
 108:big_knob.cpp  ****     hw.adc.Start();
 615              		.loc 1 108 5 is_stmt 1 view .LVU161
 616              		.loc 1 108 17 is_stmt 0 view .LVU162
 617 009c 1F48     		ldr	r0, .L30+20
 618 009e FFF7FEFF 		bl	_ZN5daisy9AdcHandle5StartEv
 619              	.LVL43:
 109:big_knob.cpp  **** 
 110:big_knob.cpp  ****     // GPIO setup
 111:big_knob.cpp  ****     // osc1 out
 112:big_knob.cpp  ****     outPins[0].Init(D14, GPIO::Mode::OUTPUT, GPIO::Pull::NOPULL);
 620              		.loc 1 112 5 is_stmt 1 view .LVU163
 621              		.loc 1 112 20 is_stmt 0 view .LVU164
ARM GAS  /var/folders/5r/jcdnhfj535b7rff_ygc02qhr0000gn/T//cct0A4AP.s 			page 23


 622 00a2 1F49     		ldr	r1, .L30+24
 623 00a4 2B46     		mov	r3, r5
 624 00a6 0122     		movs	r2, #1
 625 00a8 0968     		ldr	r1, [r1]
 626 00aa 1E48     		ldr	r0, .L30+28
 627 00ac 0095     		str	r5, [sp]
 628 00ae FFF7FEFF 		bl	_ZN5daisy4GPIO4InitENS_3PinENS0_4ModeENS0_4PullENS0_5SpeedE
 629              	.LVL44:
 113:big_knob.cpp  ****     // flt1 in
 114:big_knob.cpp  ****     inPins[0].Init(D13, GPIO::Mode::INPUT, GPIO::Pull::PULLDOWN);
 630              		.loc 1 114 5 is_stmt 1 view .LVU165
 631              		.loc 1 114 19 is_stmt 0 view .LVU166
 632 00b2 1D49     		ldr	r1, .L30+32
 633 00b4 3346     		mov	r3, r6
 634 00b6 1D48     		ldr	r0, .L30+36
 635 00b8 0968     		ldr	r1, [r1]
 636 00ba 2A46     		mov	r2, r5
 637 00bc 0095     		str	r5, [sp]
 638 00be FFF7FEFF 		bl	_ZN5daisy4GPIO4InitENS_3PinENS0_4ModeENS0_4PullENS0_5SpeedE
 639              	.LVL45:
 115:big_knob.cpp  **** 
 116:big_knob.cpp  ****     // Audio start
 117:big_knob.cpp  ****     hw.StartAudio(AudioCallback);
 640              		.loc 1 117 5 is_stmt 1 view .LVU167
 641              		.loc 1 117 18 is_stmt 0 view .LVU168
 642 00c2 1B49     		ldr	r1, .L30+40
 643 00c4 1048     		ldr	r0, .L30
 644 00c6 1B4E     		ldr	r6, .L30+44
 645 00c8 FFF7FEFF 		bl	_ZN5daisy9DaisySeed10StartAudioEPFvPKPKfPPfjE
 646              	.LVL46:
 647              	.L26:
 118:big_knob.cpp  **** 
 119:big_knob.cpp  ****     while (1) {
 648              		.loc 1 119 5 is_stmt 1 view .LVU169
 649              	.LBB175:
 120:big_knob.cpp  ****         // read patchbay connections
 121:big_knob.cpp  ****         for (int i = 0; i < NUM_OUT_PINS; i++) {
 650              		.loc 1 121 9 view .LVU170
 651              	.LBB176:
 652              		.loc 1 121 27 view .LVU171
 653 00cc 154F     		ldr	r7, .L30+28
 654 00ce DFF86C80 		ldr	r8, .L30+52
 655              	.LVL47:
 656              	.L25:
 657              	.LBB177:
 122:big_knob.cpp  ****             outPins[i].Write(1);
 658              		.loc 1 122 13 view .LVU172
 659              		.loc 1 122 29 is_stmt 0 view .LVU173
 660 00d2 0121     		movs	r1, #1
 661 00d4 3846     		mov	r0, r7
 662 00d6 154C     		ldr	r4, .L30+36
 663 00d8 4546     		mov	r5, r8
 664 00da FFF7FEFF 		bl	_ZN5daisy4GPIO5WriteEb
 665              	.LVL48:
 123:big_knob.cpp  ****             for (int j = 0; j < NUM_IN_PINS; j++) {
 666              		.loc 1 123 13 is_stmt 1 view .LVU174
 667              	.LBB178:
ARM GAS  /var/folders/5r/jcdnhfj535b7rff_ygc02qhr0000gn/T//cct0A4AP.s 			page 24


 668              		.loc 1 123 31 view .LVU175
 669              	.L24:
 124:big_knob.cpp  ****                 if (inPins[j].Read()) {
 670              		.loc 1 124 17 view .LVU176
 671              		.loc 1 124 35 is_stmt 0 view .LVU177
 672 00de 2046     		mov	r0, r4
 123:big_knob.cpp  ****             for (int j = 0; j < NUM_IN_PINS; j++) {
 673              		.loc 1 123 31 view .LVU178
 674 00e0 1434     		adds	r4, r4, #20
 675              		.loc 1 124 35 view .LVU179
 676 00e2 FFF7FEFF 		bl	_ZN5daisy4GPIO4ReadEv
 677              	.LVL49:
 678              		.loc 1 124 17 view .LVU180
 679 00e6 45F8040F 		str	r0, [r5, #4]!
 123:big_knob.cpp  ****             for (int j = 0; j < NUM_IN_PINS; j++) {
 680              		.loc 1 123 13 is_stmt 1 view .LVU181
 123:big_knob.cpp  ****             for (int j = 0; j < NUM_IN_PINS; j++) {
 681              		.loc 1 123 31 view .LVU182
 682 00ea B442     		cmp	r4, r6
 683 00ec F7D1     		bne	.L24
 684              	.LBE178:
 125:big_knob.cpp  ****                     patchbay[i][j] = 1;
 126:big_knob.cpp  ****                 } else {
 127:big_knob.cpp  ****                     patchbay[i][j] = 0;
 128:big_knob.cpp  ****                 }
 129:big_knob.cpp  ****             }
 130:big_knob.cpp  ****             outPins[i].Write(0);
 685              		.loc 1 130 13 discriminator 2 view .LVU183
 686              		.loc 1 130 29 is_stmt 0 discriminator 2 view .LVU184
 687 00ee 3846     		mov	r0, r7
 688              	.LBE177:
 121:big_knob.cpp  ****             outPins[i].Write(1);
 689              		.loc 1 121 27 discriminator 2 view .LVU185
 690 00f0 1437     		adds	r7, r7, #20
 691              	.LBB179:
 692              		.loc 1 130 29 discriminator 2 view .LVU186
 693 00f2 0021     		movs	r1, #0
 694              	.LBE179:
 121:big_knob.cpp  ****             outPins[i].Write(1);
 695              		.loc 1 121 27 discriminator 2 view .LVU187
 696 00f4 08F12408 		add	r8, r8, #36
 697              	.LBB180:
 698              		.loc 1 130 29 discriminator 2 view .LVU188
 699 00f8 FFF7FEFF 		bl	_ZN5daisy4GPIO5WriteEb
 700              	.LVL50:
 701              	.LBE180:
 121:big_knob.cpp  ****             outPins[i].Write(1);
 702              		.loc 1 121 9 is_stmt 1 discriminator 2 view .LVU189
 121:big_knob.cpp  ****             outPins[i].Write(1);
 703              		.loc 1 121 27 discriminator 2 view .LVU190
 704 00fc 4F45     		cmp	r7, r9
 705 00fe E8D1     		bne	.L25
 706              	.LBE176:
 131:big_knob.cpp  ****         }
 132:big_knob.cpp  **** 
 133:big_knob.cpp  ****         System::Delay(100);
 707              		.loc 1 133 9 view .LVU191
ARM GAS  /var/folders/5r/jcdnhfj535b7rff_ygc02qhr0000gn/T//cct0A4AP.s 			page 25


 708              		.loc 1 133 22 is_stmt 0 view .LVU192
 709 0100 6420     		movs	r0, #100
 710 0102 FFF7FEFF 		bl	_ZN5daisy6System5DelayEm
 711              	.LVL51:
 712              	.LBE175:
 119:big_knob.cpp  ****         // read patchbay connections
 713              		.loc 1 119 5 is_stmt 1 view .LVU193
 134:big_knob.cpp  ****     }
 714              		.loc 1 134 5 is_stmt 0 view .LVU194
 715 0106 E1E7     		b	.L26
 716              	.L31:
 717              		.align	2
 718              	.L30:
 719 0108 00000000 		.word	hw
 720 010c 00000000 		.word	osc1
 721 0110 DB0F4940 		.word	1078530011
 722 0114 0000C842 		.word	1120403456
 723 0118 00000000 		.word	flt1
 724 011c 18000000 		.word	hw+24
 725 0120 00000000 		.word	_ZN5daisy4seedL3D14E
 726 0124 00000000 		.word	outPins
 727 0128 00000000 		.word	_ZN5daisy4seedL3D13E
 728 012c 00000000 		.word	inPins
 729 0130 00000000 		.word	_Z13AudioCallbackPKPKfPPfj
 730 0134 B4000000 		.word	inPins+180
 731 0138 04010000 		.word	outPins+260
 732 013c FCFFFFFF 		.word	patchbay-4
 733              		.cfi_endproc
 734              	.LFE4779:
 736              		.section	.text.startup._GLOBAL__sub_I_hw,"ax",%progbits
 737              		.align	1
 738              		.p2align 2,,3
 739              		.syntax unified
 740              		.thumb
 741              		.thumb_func
 743              	_GLOBAL__sub_I_hw:
 744              	.LFB5364:
 135:big_knob.cpp  **** }
 745              		.loc 1 135 1 is_stmt 1 view -0
 746              		.cfi_startproc
 747              		@ args = 0, pretend = 0, frame = 0
 748              		@ frame_needed = 0, uses_anonymous_args = 0
 749              	.LBB255:
 750              	.LBI255:
 751              		.loc 1 135 1 view .LVU196
 752              	.LVL52:
 753              	.LBB256:
 754              	.LBB257:
 755              	.LBI257:
  21:/Users/ansel/Documents/DaisyExamples/libDaisy//src/daisy_seed.h ****     ~DaisySeed() {}
 756              		.loc 2 21 5 view .LVU197
 757              	.LBB258:
 758              	.LBB259:
 759              	.LBI259:
 760              		.file 9 "/Users/ansel/Documents/DaisyExamples/libDaisy//src/per/qspi.h"
   1:/Users/ansel/Documents/DaisyExamples/libDaisy//src/per/qspi.h **** #ifndef DSY_QSPI
   2:/Users/ansel/Documents/DaisyExamples/libDaisy//src/per/qspi.h **** #define DSY_QSPI /**< Macro */
ARM GAS  /var/folders/5r/jcdnhfj535b7rff_ygc02qhr0000gn/T//cct0A4AP.s 			page 26


   3:/Users/ansel/Documents/DaisyExamples/libDaisy//src/per/qspi.h **** 
   4:/Users/ansel/Documents/DaisyExamples/libDaisy//src/per/qspi.h **** #ifndef UNIT_TEST // for unit tests, a dummy implementation
   5:/Users/ansel/Documents/DaisyExamples/libDaisy//src/per/qspi.h **** 
   6:/Users/ansel/Documents/DaisyExamples/libDaisy//src/per/qspi.h **** #include <cstdint>
   7:/Users/ansel/Documents/DaisyExamples/libDaisy//src/per/qspi.h **** #include "daisy_core.h" // Added for dsy_gpio_pin typedef
   8:/Users/ansel/Documents/DaisyExamples/libDaisy//src/per/qspi.h **** 
   9:/Users/ansel/Documents/DaisyExamples/libDaisy//src/per/qspi.h **** #define DSY_QSPI_TEXT       \
  10:/Users/ansel/Documents/DaisyExamples/libDaisy//src/per/qspi.h ****     __attribute__((section( \
  11:/Users/ansel/Documents/DaisyExamples/libDaisy//src/per/qspi.h ****         ".qspiflash_text"))) /**< used for reading memory in memory_mapped mode. */
  12:/Users/ansel/Documents/DaisyExamples/libDaisy//src/per/qspi.h **** #define DSY_QSPI_DATA       \
  13:/Users/ansel/Documents/DaisyExamples/libDaisy//src/per/qspi.h ****     __attribute__((section( \
  14:/Users/ansel/Documents/DaisyExamples/libDaisy//src/per/qspi.h ****         ".qspiflash_data"))) /**< used for reading memory in memory_mapped mode. */
  15:/Users/ansel/Documents/DaisyExamples/libDaisy//src/per/qspi.h **** #define DSY_QSPI_BSS        \
  16:/Users/ansel/Documents/DaisyExamples/libDaisy//src/per/qspi.h ****     __attribute__((section( \
  17:/Users/ansel/Documents/DaisyExamples/libDaisy//src/per/qspi.h ****         ".qspiflash_bss"))) /**< used for reading memory in memory_mapped mode. */
  18:/Users/ansel/Documents/DaisyExamples/libDaisy//src/per/qspi.h **** 
  19:/Users/ansel/Documents/DaisyExamples/libDaisy//src/per/qspi.h **** namespace daisy
  20:/Users/ansel/Documents/DaisyExamples/libDaisy//src/per/qspi.h **** {
  21:/Users/ansel/Documents/DaisyExamples/libDaisy//src/per/qspi.h **** /** @addtogroup serial
  22:/Users/ansel/Documents/DaisyExamples/libDaisy//src/per/qspi.h **** @{
  23:/Users/ansel/Documents/DaisyExamples/libDaisy//src/per/qspi.h **** */
  24:/Users/ansel/Documents/DaisyExamples/libDaisy//src/per/qspi.h **** 
  25:/Users/ansel/Documents/DaisyExamples/libDaisy//src/per/qspi.h **** /** 
  26:/Users/ansel/Documents/DaisyExamples/libDaisy//src/per/qspi.h ****  Driver for QSPI peripheral to interface with external flash memory. \n 
  27:/Users/ansel/Documents/DaisyExamples/libDaisy//src/per/qspi.h ****     Currently supported QSPI Devices: \n 
  28:/Users/ansel/Documents/DaisyExamples/libDaisy//src/per/qspi.h ****     * IS25LP080D
  29:/Users/ansel/Documents/DaisyExamples/libDaisy//src/per/qspi.h **** */
  30:/Users/ansel/Documents/DaisyExamples/libDaisy//src/per/qspi.h **** class QSPIHandle
  31:/Users/ansel/Documents/DaisyExamples/libDaisy//src/per/qspi.h **** {
  32:/Users/ansel/Documents/DaisyExamples/libDaisy//src/per/qspi.h ****   public:
  33:/Users/ansel/Documents/DaisyExamples/libDaisy//src/per/qspi.h ****     enum Result
  34:/Users/ansel/Documents/DaisyExamples/libDaisy//src/per/qspi.h ****     {
  35:/Users/ansel/Documents/DaisyExamples/libDaisy//src/per/qspi.h ****         OK = 0,
  36:/Users/ansel/Documents/DaisyExamples/libDaisy//src/per/qspi.h ****         ERR
  37:/Users/ansel/Documents/DaisyExamples/libDaisy//src/per/qspi.h ****     };
  38:/Users/ansel/Documents/DaisyExamples/libDaisy//src/per/qspi.h **** 
  39:/Users/ansel/Documents/DaisyExamples/libDaisy//src/per/qspi.h ****     /** Indicates the current status of the module. 
  40:/Users/ansel/Documents/DaisyExamples/libDaisy//src/per/qspi.h ****          *  Warnings are indicated by a leading W.
  41:/Users/ansel/Documents/DaisyExamples/libDaisy//src/per/qspi.h ****          *  Errors are indicated by a leading E and cause an immediate exit.
  42:/Users/ansel/Documents/DaisyExamples/libDaisy//src/per/qspi.h ****          * 
  43:/Users/ansel/Documents/DaisyExamples/libDaisy//src/per/qspi.h ****          *  \param GOOD - No errors have been reported.
  44:/Users/ansel/Documents/DaisyExamples/libDaisy//src/per/qspi.h ****          *  \param E_HAL_ERROR - HAL code did not return HAL_OK.
  45:/Users/ansel/Documents/DaisyExamples/libDaisy//src/per/qspi.h ****          *  \param E_SWITCHING_MODES - An error was encountered while switching QSPI peripheral mod
  46:/Users/ansel/Documents/DaisyExamples/libDaisy//src/per/qspi.h ****          *  \param E_INVALID_MODE - QSPI should not be written to while the program is executing fr
  47:/Users/ansel/Documents/DaisyExamples/libDaisy//src/per/qspi.h ****          */
  48:/Users/ansel/Documents/DaisyExamples/libDaisy//src/per/qspi.h ****     enum Status
  49:/Users/ansel/Documents/DaisyExamples/libDaisy//src/per/qspi.h ****     {
  50:/Users/ansel/Documents/DaisyExamples/libDaisy//src/per/qspi.h ****         GOOD = 0,
  51:/Users/ansel/Documents/DaisyExamples/libDaisy//src/per/qspi.h ****         E_HAL_ERROR,
  52:/Users/ansel/Documents/DaisyExamples/libDaisy//src/per/qspi.h ****         E_SWITCHING_MODES,
  53:/Users/ansel/Documents/DaisyExamples/libDaisy//src/per/qspi.h ****         E_INVALID_MODE,
  54:/Users/ansel/Documents/DaisyExamples/libDaisy//src/per/qspi.h ****     };
  55:/Users/ansel/Documents/DaisyExamples/libDaisy//src/per/qspi.h **** 
  56:/Users/ansel/Documents/DaisyExamples/libDaisy//src/per/qspi.h ****     /** Configuration structure for interfacing with QSPI Driver */
  57:/Users/ansel/Documents/DaisyExamples/libDaisy//src/per/qspi.h ****     struct Config
  58:/Users/ansel/Documents/DaisyExamples/libDaisy//src/per/qspi.h ****     {
  59:/Users/ansel/Documents/DaisyExamples/libDaisy//src/per/qspi.h ****         /** Flash Devices supported. (Both of these are more-or-less the same, just different sizes
ARM GAS  /var/folders/5r/jcdnhfj535b7rff_ygc02qhr0000gn/T//cct0A4AP.s 			page 27


  60:/Users/ansel/Documents/DaisyExamples/libDaisy//src/per/qspi.h ****         enum Device
  61:/Users/ansel/Documents/DaisyExamples/libDaisy//src/per/qspi.h ****         {
  62:/Users/ansel/Documents/DaisyExamples/libDaisy//src/per/qspi.h ****             IS25LP080D,  /**< & */
  63:/Users/ansel/Documents/DaisyExamples/libDaisy//src/per/qspi.h ****             IS25LP064A,  /**< & */
  64:/Users/ansel/Documents/DaisyExamples/libDaisy//src/per/qspi.h ****             DEVICE_LAST, /**< & */
  65:/Users/ansel/Documents/DaisyExamples/libDaisy//src/per/qspi.h ****         };
  66:/Users/ansel/Documents/DaisyExamples/libDaisy//src/per/qspi.h **** 
  67:/Users/ansel/Documents/DaisyExamples/libDaisy//src/per/qspi.h ****         /** 
  68:/Users/ansel/Documents/DaisyExamples/libDaisy//src/per/qspi.h ****         Modes of operation.
  69:/Users/ansel/Documents/DaisyExamples/libDaisy//src/per/qspi.h ****         Memory Mapped mode: QSPI configured so that the QSPI can be
  70:/Users/ansel/Documents/DaisyExamples/libDaisy//src/per/qspi.h ****         read from starting address 0x90000000. Writing is not
  71:/Users/ansel/Documents/DaisyExamples/libDaisy//src/per/qspi.h ****         possible in this mode. \n 
  72:/Users/ansel/Documents/DaisyExamples/libDaisy//src/per/qspi.h ****         Indirect Polling mode: Device driver enabled. 
  73:/Users/ansel/Documents/DaisyExamples/libDaisy//src/per/qspi.h ****         */
  74:/Users/ansel/Documents/DaisyExamples/libDaisy//src/per/qspi.h ****         enum Mode
  75:/Users/ansel/Documents/DaisyExamples/libDaisy//src/per/qspi.h ****         {
  76:/Users/ansel/Documents/DaisyExamples/libDaisy//src/per/qspi.h ****             MEMORY_MAPPED,    /**< & */
  77:/Users/ansel/Documents/DaisyExamples/libDaisy//src/per/qspi.h ****             INDIRECT_POLLING, /**< & */
  78:/Users/ansel/Documents/DaisyExamples/libDaisy//src/per/qspi.h ****             MODE_LAST,
  79:/Users/ansel/Documents/DaisyExamples/libDaisy//src/per/qspi.h ****         };
  80:/Users/ansel/Documents/DaisyExamples/libDaisy//src/per/qspi.h **** 
  81:/Users/ansel/Documents/DaisyExamples/libDaisy//src/per/qspi.h ****         //SCK,  CE# (active low)
  82:/Users/ansel/Documents/DaisyExamples/libDaisy//src/per/qspi.h ****         struct
  83:/Users/ansel/Documents/DaisyExamples/libDaisy//src/per/qspi.h ****         {
  84:/Users/ansel/Documents/DaisyExamples/libDaisy//src/per/qspi.h ****             dsy_gpio_pin io0; /**< & */
  85:/Users/ansel/Documents/DaisyExamples/libDaisy//src/per/qspi.h ****             dsy_gpio_pin io1; /**< & */
  86:/Users/ansel/Documents/DaisyExamples/libDaisy//src/per/qspi.h ****             dsy_gpio_pin io2; /**< & */
  87:/Users/ansel/Documents/DaisyExamples/libDaisy//src/per/qspi.h ****             dsy_gpio_pin io3; /**< & */
  88:/Users/ansel/Documents/DaisyExamples/libDaisy//src/per/qspi.h ****             dsy_gpio_pin clk; /**< & */
  89:/Users/ansel/Documents/DaisyExamples/libDaisy//src/per/qspi.h ****             dsy_gpio_pin ncs; /**< & */
  90:/Users/ansel/Documents/DaisyExamples/libDaisy//src/per/qspi.h ****         } pin_config;
  91:/Users/ansel/Documents/DaisyExamples/libDaisy//src/per/qspi.h **** 
  92:/Users/ansel/Documents/DaisyExamples/libDaisy//src/per/qspi.h ****         Device device;
  93:/Users/ansel/Documents/DaisyExamples/libDaisy//src/per/qspi.h ****         Mode   mode;
  94:/Users/ansel/Documents/DaisyExamples/libDaisy//src/per/qspi.h ****     };
  95:/Users/ansel/Documents/DaisyExamples/libDaisy//src/per/qspi.h **** 
  96:/Users/ansel/Documents/DaisyExamples/libDaisy//src/per/qspi.h ****     /** 
  97:/Users/ansel/Documents/DaisyExamples/libDaisy//src/per/qspi.h ****         Initializes QSPI peripheral, and Resets, and prepares memory for access.
  98:/Users/ansel/Documents/DaisyExamples/libDaisy//src/per/qspi.h ****         \param config should be populated with the mode, device and pin_config before calling this 
  99:/Users/ansel/Documents/DaisyExamples/libDaisy//src/per/qspi.h ****         \return Result::OK or Result::ERR
 100:/Users/ansel/Documents/DaisyExamples/libDaisy//src/per/qspi.h ****         */
 101:/Users/ansel/Documents/DaisyExamples/libDaisy//src/per/qspi.h ****     Result Init(const Config& config);
 102:/Users/ansel/Documents/DaisyExamples/libDaisy//src/per/qspi.h **** 
 103:/Users/ansel/Documents/DaisyExamples/libDaisy//src/per/qspi.h ****     /** Returns the current config. */
 104:/Users/ansel/Documents/DaisyExamples/libDaisy//src/per/qspi.h ****     const Config& GetConfig() const;
 105:/Users/ansel/Documents/DaisyExamples/libDaisy//src/per/qspi.h **** 
 106:/Users/ansel/Documents/DaisyExamples/libDaisy//src/per/qspi.h ****     // Couldn't this just be called before anything else in init? That
 107:/Users/ansel/Documents/DaisyExamples/libDaisy//src/per/qspi.h ****     // would make manually calling it unnecessary.
 108:/Users/ansel/Documents/DaisyExamples/libDaisy//src/per/qspi.h ****     /** 
 109:/Users/ansel/Documents/DaisyExamples/libDaisy//src/per/qspi.h ****         Deinitializes the peripheral
 110:/Users/ansel/Documents/DaisyExamples/libDaisy//src/per/qspi.h ****         This should be called before reinitializing QSPI in a different mode.
 111:/Users/ansel/Documents/DaisyExamples/libDaisy//src/per/qspi.h ****         \return Result::OK or Result::ERR
 112:/Users/ansel/Documents/DaisyExamples/libDaisy//src/per/qspi.h ****         */
 113:/Users/ansel/Documents/DaisyExamples/libDaisy//src/per/qspi.h ****     Result DeInit();
 114:/Users/ansel/Documents/DaisyExamples/libDaisy//src/per/qspi.h **** 
 115:/Users/ansel/Documents/DaisyExamples/libDaisy//src/per/qspi.h ****     /** 
 116:/Users/ansel/Documents/DaisyExamples/libDaisy//src/per/qspi.h ****         Writes a single page to to the specified address on the QSPI chip.
ARM GAS  /var/folders/5r/jcdnhfj535b7rff_ygc02qhr0000gn/T//cct0A4AP.s 			page 28


 117:/Users/ansel/Documents/DaisyExamples/libDaisy//src/per/qspi.h ****         For IS25LP*, page size is 256 bytes.
 118:/Users/ansel/Documents/DaisyExamples/libDaisy//src/per/qspi.h ****         \param address Address to write to
 119:/Users/ansel/Documents/DaisyExamples/libDaisy//src/per/qspi.h ****         \param size Buffer size
 120:/Users/ansel/Documents/DaisyExamples/libDaisy//src/per/qspi.h ****         \param buffer Buffer to write
 121:/Users/ansel/Documents/DaisyExamples/libDaisy//src/per/qspi.h ****         \return Result::OK or Result::ERR
 122:/Users/ansel/Documents/DaisyExamples/libDaisy//src/per/qspi.h ****         */
 123:/Users/ansel/Documents/DaisyExamples/libDaisy//src/per/qspi.h ****     Result WritePage(uint32_t address, uint32_t size, uint8_t* buffer);
 124:/Users/ansel/Documents/DaisyExamples/libDaisy//src/per/qspi.h **** 
 125:/Users/ansel/Documents/DaisyExamples/libDaisy//src/per/qspi.h ****     /** 
 126:/Users/ansel/Documents/DaisyExamples/libDaisy//src/per/qspi.h ****         Writes data in buffer to to the QSPI. Starting at address to address+size 
 127:/Users/ansel/Documents/DaisyExamples/libDaisy//src/per/qspi.h ****         \param address Address to write to
 128:/Users/ansel/Documents/DaisyExamples/libDaisy//src/per/qspi.h ****         \param size Buffer size
 129:/Users/ansel/Documents/DaisyExamples/libDaisy//src/per/qspi.h ****         \param buffer Buffer to write
 130:/Users/ansel/Documents/DaisyExamples/libDaisy//src/per/qspi.h ****         \return Result::OK or Result::ERR
 131:/Users/ansel/Documents/DaisyExamples/libDaisy//src/per/qspi.h ****         */
 132:/Users/ansel/Documents/DaisyExamples/libDaisy//src/per/qspi.h ****     Result Write(uint32_t address, uint32_t size, uint8_t* buffer);
 133:/Users/ansel/Documents/DaisyExamples/libDaisy//src/per/qspi.h **** 
 134:/Users/ansel/Documents/DaisyExamples/libDaisy//src/per/qspi.h ****     /** 
 135:/Users/ansel/Documents/DaisyExamples/libDaisy//src/per/qspi.h ****         Erases the area specified on the chip.
 136:/Users/ansel/Documents/DaisyExamples/libDaisy//src/per/qspi.h ****         Erasures will happen by 4K, 32K or 64K increments.
 137:/Users/ansel/Documents/DaisyExamples/libDaisy//src/per/qspi.h ****         Smallest erase possible is 4kB at a time. (on IS25LP*)
 138:/Users/ansel/Documents/DaisyExamples/libDaisy//src/per/qspi.h ****         \param start_addr Address to begin erasing from
 139:/Users/ansel/Documents/DaisyExamples/libDaisy//src/per/qspi.h ****         \param end_addr  Address to stop erasing at
 140:/Users/ansel/Documents/DaisyExamples/libDaisy//src/per/qspi.h ****         \return Result::OK or Result::ERR
 141:/Users/ansel/Documents/DaisyExamples/libDaisy//src/per/qspi.h ****         */
 142:/Users/ansel/Documents/DaisyExamples/libDaisy//src/per/qspi.h ****     Result Erase(uint32_t start_addr, uint32_t end_addr);
 143:/Users/ansel/Documents/DaisyExamples/libDaisy//src/per/qspi.h **** 
 144:/Users/ansel/Documents/DaisyExamples/libDaisy//src/per/qspi.h ****     /**  
 145:/Users/ansel/Documents/DaisyExamples/libDaisy//src/per/qspi.h ****          Erases a single sector of the chip.  
 146:/Users/ansel/Documents/DaisyExamples/libDaisy//src/per/qspi.h ****         TODO: Document the size of this function. 
 147:/Users/ansel/Documents/DaisyExamples/libDaisy//src/per/qspi.h ****         \param address Address of sector to erase
 148:/Users/ansel/Documents/DaisyExamples/libDaisy//src/per/qspi.h ****         \return Result::OK or Result::ERR
 149:/Users/ansel/Documents/DaisyExamples/libDaisy//src/per/qspi.h ****         */
 150:/Users/ansel/Documents/DaisyExamples/libDaisy//src/per/qspi.h ****     Result EraseSector(uint32_t address);
 151:/Users/ansel/Documents/DaisyExamples/libDaisy//src/per/qspi.h **** 
 152:/Users/ansel/Documents/DaisyExamples/libDaisy//src/per/qspi.h ****     /** Returns the current class status. Useful for debugging.
 153:/Users/ansel/Documents/DaisyExamples/libDaisy//src/per/qspi.h ****      *  \returns Status
 154:/Users/ansel/Documents/DaisyExamples/libDaisy//src/per/qspi.h ****      */
 155:/Users/ansel/Documents/DaisyExamples/libDaisy//src/per/qspi.h ****     Status GetStatus();
 156:/Users/ansel/Documents/DaisyExamples/libDaisy//src/per/qspi.h **** 
 157:/Users/ansel/Documents/DaisyExamples/libDaisy//src/per/qspi.h ****     /** Returns a pointer to the actual memory used 
 158:/Users/ansel/Documents/DaisyExamples/libDaisy//src/per/qspi.h ****      *  The memory at this address is read-only
 159:/Users/ansel/Documents/DaisyExamples/libDaisy//src/per/qspi.h ****      *  to write to it use the Write function.
 160:/Users/ansel/Documents/DaisyExamples/libDaisy//src/per/qspi.h ****      * 
 161:/Users/ansel/Documents/DaisyExamples/libDaisy//src/per/qspi.h ****      *  \param offset returns the pointer starting this 
 162:/Users/ansel/Documents/DaisyExamples/libDaisy//src/per/qspi.h ****      *                many bytes into the memory
 163:/Users/ansel/Documents/DaisyExamples/libDaisy//src/per/qspi.h ****     */
 164:/Users/ansel/Documents/DaisyExamples/libDaisy//src/per/qspi.h ****     void* GetData(uint32_t offset = 0);
 165:/Users/ansel/Documents/DaisyExamples/libDaisy//src/per/qspi.h **** 
 166:/Users/ansel/Documents/DaisyExamples/libDaisy//src/per/qspi.h ****     QSPIHandle() : pimpl_(nullptr) {}
 761              		.loc 9 166 5 view .LVU198
 762              	.LBE259:
 763              	.LBE258:
 764              	.LBE257:
 765              	.LBE256:
 766              	.LBE255:
 767              		.loc 1 135 1 is_stmt 0 view .LVU199
ARM GAS  /var/folders/5r/jcdnhfj535b7rff_ygc02qhr0000gn/T//cct0A4AP.s 			page 29


 768 0000 08B5     		push	{r3, lr}
 769              		.cfi_def_cfa_offset 8
 770              		.cfi_offset 3, -8
 771              		.cfi_offset 14, -4
 772              	.LBB316:
 773              	.LBB315:
 774              	.LBB277:
 775              	.LBB275:
 776              	.LBB264:
 777              	.LBB260:
 778              	.LBB261:
 779              		.loc 9 166 20 view .LVU200
 780 0002 1948     		ldr	r0, .L38
 781 0004 0023     		movs	r3, #0
 782              	.LBE261:
 783              	.LBE260:
 784              	.LBE264:
 785              	.LBE275:
 786              	.LBE277:
  39:big_knob.cpp  **** 
 787              		.loc 1 39 11 view .LVU201
 788 0006 194A     		ldr	r2, .L38+4
 789 0008 1949     		ldr	r1, .L38+8
 790              	.LBB278:
 791              	.LBB276:
 792              	.LBB265:
 793              	.LBB263:
 794              	.LBB262:
 795              		.loc 9 166 20 view .LVU202
 796 000a 0360     		str	r3, [r0]
 797              	.LVL53:
 798              		.loc 9 166 20 view .LVU203
 799              	.LBE262:
 800              	.LBE263:
 801              	.LBE265:
 802              	.LBB266:
 803              	.LBI266:
  95:/Users/ansel/Documents/DaisyExamples/libDaisy//src/hid/audio.h ****     ~AudioHandle() {}
 804              		.loc 6 95 5 is_stmt 1 view .LVU204
 805              	.LBB267:
 806              	.LBB268:
  95:/Users/ansel/Documents/DaisyExamples/libDaisy//src/hid/audio.h ****     ~AudioHandle() {}
 807              		.loc 6 95 21 is_stmt 0 view .LVU205
 808 000c 4361     		str	r3, [r0, #20]
 809              	.LVL54:
  95:/Users/ansel/Documents/DaisyExamples/libDaisy//src/hid/audio.h ****     ~AudioHandle() {}
 810              		.loc 6 95 21 view .LVU206
 811              	.LBE268:
 812              	.LBE267:
 813              	.LBE266:
 814              	.LBB269:
 815              	.LBI269:
  92:/Users/ansel/Documents/DaisyExamples/libDaisy//src/per/adc.h ****     ~AdcHandle() {}
 816              		.loc 5 92 5 is_stmt 1 view .LVU207
  92:/Users/ansel/Documents/DaisyExamples/libDaisy//src/per/adc.h ****     ~AdcHandle() {}
 817              		.loc 5 92 5 is_stmt 0 view .LVU208
 818              	.LBE269:
ARM GAS  /var/folders/5r/jcdnhfj535b7rff_ygc02qhr0000gn/T//cct0A4AP.s 			page 30


 819              	.LBB270:
 820              	.LBI270:
 821              		.file 10 "/Users/ansel/Documents/DaisyExamples/libDaisy//src/per/dac.h"
   1:/Users/ansel/Documents/DaisyExamples/libDaisy//src/per/dac.h **** #pragma once
   2:/Users/ansel/Documents/DaisyExamples/libDaisy//src/per/dac.h **** #ifndef DSY_DAC_H
   3:/Users/ansel/Documents/DaisyExamples/libDaisy//src/per/dac.h **** #define DSY_DAC_H
   4:/Users/ansel/Documents/DaisyExamples/libDaisy//src/per/dac.h **** 
   5:/Users/ansel/Documents/DaisyExamples/libDaisy//src/per/dac.h **** #include "daisy_core.h"
   6:/Users/ansel/Documents/DaisyExamples/libDaisy//src/per/dac.h **** 
   7:/Users/ansel/Documents/DaisyExamples/libDaisy//src/per/dac.h **** namespace daisy
   8:/Users/ansel/Documents/DaisyExamples/libDaisy//src/per/dac.h **** {
   9:/Users/ansel/Documents/DaisyExamples/libDaisy//src/per/dac.h **** /** @brief DAC handle for Built-in DAC Peripheral 
  10:/Users/ansel/Documents/DaisyExamples/libDaisy//src/per/dac.h ****  *  @ingroup per_analog
  11:/Users/ansel/Documents/DaisyExamples/libDaisy//src/per/dac.h ****  ** 
  12:/Users/ansel/Documents/DaisyExamples/libDaisy//src/per/dac.h ****  ** For now only Normal Mode is supported,
  13:/Users/ansel/Documents/DaisyExamples/libDaisy//src/per/dac.h ****  ** Sample and hold mode provides reduced power consumption, but requires a bit more setup.
  14:/Users/ansel/Documents/DaisyExamples/libDaisy//src/per/dac.h ****  **
  15:/Users/ansel/Documents/DaisyExamples/libDaisy//src/per/dac.h ****  ** For now connecting the DAC through other internal peripherals is also not supported.
  16:/Users/ansel/Documents/DaisyExamples/libDaisy//src/per/dac.h ****  **
  17:/Users/ansel/Documents/DaisyExamples/libDaisy//src/per/dac.h ****  ** Since the DAC channels have dedicated pins we don't need to pass in a pin config like with
  18:/Users/ansel/Documents/DaisyExamples/libDaisy//src/per/dac.h ****  ** other modules. However, it is still important to not try to use the DAC pins for anything else.
  19:/Users/ansel/Documents/DaisyExamples/libDaisy//src/per/dac.h ****  ** DAC Channel 1 is on PA4, and DAC Channel 2 is on PA5
  20:/Users/ansel/Documents/DaisyExamples/libDaisy//src/per/dac.h ****  ***/
  21:/Users/ansel/Documents/DaisyExamples/libDaisy//src/per/dac.h **** class DacHandle
  22:/Users/ansel/Documents/DaisyExamples/libDaisy//src/per/dac.h **** {
  23:/Users/ansel/Documents/DaisyExamples/libDaisy//src/per/dac.h ****   public:
  24:/Users/ansel/Documents/DaisyExamples/libDaisy//src/per/dac.h ****     /** Return Values for the DacHandle class */
  25:/Users/ansel/Documents/DaisyExamples/libDaisy//src/per/dac.h ****     enum class Result
  26:/Users/ansel/Documents/DaisyExamples/libDaisy//src/per/dac.h ****     {
  27:/Users/ansel/Documents/DaisyExamples/libDaisy//src/per/dac.h ****         OK,
  28:/Users/ansel/Documents/DaisyExamples/libDaisy//src/per/dac.h ****         ERR,
  29:/Users/ansel/Documents/DaisyExamples/libDaisy//src/per/dac.h ****     };
  30:/Users/ansel/Documents/DaisyExamples/libDaisy//src/per/dac.h **** 
  31:/Users/ansel/Documents/DaisyExamples/libDaisy//src/per/dac.h ****     /** Selects which channel(s) will be configured for use. */
  32:/Users/ansel/Documents/DaisyExamples/libDaisy//src/per/dac.h ****     enum class Channel
  33:/Users/ansel/Documents/DaisyExamples/libDaisy//src/per/dac.h ****     {
  34:/Users/ansel/Documents/DaisyExamples/libDaisy//src/per/dac.h ****         ONE,
  35:/Users/ansel/Documents/DaisyExamples/libDaisy//src/per/dac.h ****         TWO,
  36:/Users/ansel/Documents/DaisyExamples/libDaisy//src/per/dac.h ****         BOTH,
  37:/Users/ansel/Documents/DaisyExamples/libDaisy//src/per/dac.h ****     };
  38:/Users/ansel/Documents/DaisyExamples/libDaisy//src/per/dac.h **** 
  39:/Users/ansel/Documents/DaisyExamples/libDaisy//src/per/dac.h ****     /** Sets the Mode for the DAC channels.
  40:/Users/ansel/Documents/DaisyExamples/libDaisy//src/per/dac.h ****      **
  41:/Users/ansel/Documents/DaisyExamples/libDaisy//src/per/dac.h ****      ** Polling mode uses the blocking mode to transmit a single value at a time.
  42:/Users/ansel/Documents/DaisyExamples/libDaisy//src/per/dac.h ****      **
  43:/Users/ansel/Documents/DaisyExamples/libDaisy//src/per/dac.h ****      ** DMA mode uses a buffer, and periodically transmits it triggering a 
  44:/Users/ansel/Documents/DaisyExamples/libDaisy//src/per/dac.h ****      ** callback to fill the buffer when it is ready for more samples.
  45:/Users/ansel/Documents/DaisyExamples/libDaisy//src/per/dac.h ****      ***/
  46:/Users/ansel/Documents/DaisyExamples/libDaisy//src/per/dac.h ****     enum class Mode
  47:/Users/ansel/Documents/DaisyExamples/libDaisy//src/per/dac.h ****     {
  48:/Users/ansel/Documents/DaisyExamples/libDaisy//src/per/dac.h ****         POLLING,
  49:/Users/ansel/Documents/DaisyExamples/libDaisy//src/per/dac.h ****         DMA,
  50:/Users/ansel/Documents/DaisyExamples/libDaisy//src/per/dac.h ****     };
  51:/Users/ansel/Documents/DaisyExamples/libDaisy//src/per/dac.h **** 
  52:/Users/ansel/Documents/DaisyExamples/libDaisy//src/per/dac.h ****     /** Sets the number of bits per sample transmitted out of the DAC.
  53:/Users/ansel/Documents/DaisyExamples/libDaisy//src/per/dac.h ****      ** The output range will be: 0V - VDDA
  54:/Users/ansel/Documents/DaisyExamples/libDaisy//src/per/dac.h ****      ** The resolution will be roughly: bitdepth / (VDDA - 0V) 
ARM GAS  /var/folders/5r/jcdnhfj535b7rff_ygc02qhr0000gn/T//cct0A4AP.s 			page 31


  55:/Users/ansel/Documents/DaisyExamples/libDaisy//src/per/dac.h ****      ***/
  56:/Users/ansel/Documents/DaisyExamples/libDaisy//src/per/dac.h ****     enum class BitDepth
  57:/Users/ansel/Documents/DaisyExamples/libDaisy//src/per/dac.h ****     {
  58:/Users/ansel/Documents/DaisyExamples/libDaisy//src/per/dac.h ****         BITS_8,
  59:/Users/ansel/Documents/DaisyExamples/libDaisy//src/per/dac.h ****         BITS_12
  60:/Users/ansel/Documents/DaisyExamples/libDaisy//src/per/dac.h ****     };
  61:/Users/ansel/Documents/DaisyExamples/libDaisy//src/per/dac.h **** 
  62:/Users/ansel/Documents/DaisyExamples/libDaisy//src/per/dac.h ****     /** Sets whether the DAC output is buffered for higher drive ability. */
  63:/Users/ansel/Documents/DaisyExamples/libDaisy//src/per/dac.h ****     enum class BufferState
  64:/Users/ansel/Documents/DaisyExamples/libDaisy//src/per/dac.h ****     {
  65:/Users/ansel/Documents/DaisyExamples/libDaisy//src/per/dac.h ****         ENABLED,
  66:/Users/ansel/Documents/DaisyExamples/libDaisy//src/per/dac.h ****         DISABLED,
  67:/Users/ansel/Documents/DaisyExamples/libDaisy//src/per/dac.h ****     };
  68:/Users/ansel/Documents/DaisyExamples/libDaisy//src/per/dac.h **** 
  69:/Users/ansel/Documents/DaisyExamples/libDaisy//src/per/dac.h ****     /** Configuration structure for initializing the DAC structure. */
  70:/Users/ansel/Documents/DaisyExamples/libDaisy//src/per/dac.h ****     struct Config
  71:/Users/ansel/Documents/DaisyExamples/libDaisy//src/per/dac.h ****     {
  72:/Users/ansel/Documents/DaisyExamples/libDaisy//src/per/dac.h ****         /** Target Samplerate in Hz used to configure the internal 
  73:/Users/ansel/Documents/DaisyExamples/libDaisy//src/per/dac.h ****          ** timebase for DMA mode. Does nothing in POLLING mode.
  74:/Users/ansel/Documents/DaisyExamples/libDaisy//src/per/dac.h ****          ** If the value is 0 at Init time this will default to 48000Hz 
  75:/Users/ansel/Documents/DaisyExamples/libDaisy//src/per/dac.h ****          ** otherwise the driver will attempt meet the target.*/
  76:/Users/ansel/Documents/DaisyExamples/libDaisy//src/per/dac.h ****         uint32_t target_samplerate;
  77:/Users/ansel/Documents/DaisyExamples/libDaisy//src/per/dac.h **** 
  78:/Users/ansel/Documents/DaisyExamples/libDaisy//src/per/dac.h ****         Channel     chn;
  79:/Users/ansel/Documents/DaisyExamples/libDaisy//src/per/dac.h ****         Mode        mode;
  80:/Users/ansel/Documents/DaisyExamples/libDaisy//src/per/dac.h ****         BitDepth    bitdepth;
  81:/Users/ansel/Documents/DaisyExamples/libDaisy//src/per/dac.h ****         BufferState buff_state;
  82:/Users/ansel/Documents/DaisyExamples/libDaisy//src/per/dac.h ****     };
  83:/Users/ansel/Documents/DaisyExamples/libDaisy//src/per/dac.h **** 
  84:/Users/ansel/Documents/DaisyExamples/libDaisy//src/per/dac.h ****     DacHandle() : pimpl_(nullptr) {}
 822              		.loc 10 84 5 is_stmt 1 view .LVU209
 823              	.LBB271:
 824              	.LBB272:
 825              		.loc 10 84 19 is_stmt 0 view .LVU210
 826 000e 0362     		str	r3, [r0, #32]
 827              	.LVL55:
 828              		.loc 10 84 19 view .LVU211
 829              	.LBE272:
 830              	.LBE271:
 831              	.LBE270:
 832              	.LBB273:
 833              	.LBI273:
  40:/Users/ansel/Documents/DaisyExamples/libDaisy//src/hid/usb.h **** 
 834              		.loc 4 40 5 is_stmt 1 view .LVU212
  40:/Users/ansel/Documents/DaisyExamples/libDaisy//src/hid/usb.h **** 
 835              		.loc 4 40 5 is_stmt 0 view .LVU213
 836              	.LBE273:
 837              	.LBB274:
 838              	.LBI274:
  77:/Users/ansel/Documents/DaisyExamples/libDaisy//src/sys/system.h ****     ~System() {}
 839              		.loc 3 77 5 is_stmt 1 view .LVU214
  77:/Users/ansel/Documents/DaisyExamples/libDaisy//src/sys/system.h ****     ~System() {}
 840              		.loc 3 77 5 is_stmt 0 view .LVU215
 841              	.LBE274:
 842              	.LBE276:
 843              	.LBE278:
  39:big_knob.cpp  **** 
ARM GAS  /var/folders/5r/jcdnhfj535b7rff_ygc02qhr0000gn/T//cct0A4AP.s 			page 32


 844              		.loc 1 39 11 view .LVU216
 845 0010 FFF7FEFF 		bl	__aeabi_atexit
 846              	.LVL56:
 847              	.LBB279:
 848              	.LBI279:
  15:/Users/ansel/Documents/DaisyExamples/DaisySP//Source/Synthesis/oscillator.h ****     ~Oscillator() {}
 849              		.loc 7 15 5 is_stmt 1 view .LVU217
  15:/Users/ansel/Documents/DaisyExamples/DaisySP//Source/Synthesis/oscillator.h ****     ~Oscillator() {}
 850              		.loc 7 15 5 is_stmt 0 view .LVU218
 851              	.LBE279:
  41:big_knob.cpp  **** Biquad     flt1;
 852              		.loc 1 41 12 view .LVU219
 853 0014 154A     		ldr	r2, .L38+4
 854 0016 1749     		ldr	r1, .L38+12
 855 0018 1748     		ldr	r0, .L38+16
 856 001a FFF7FEFF 		bl	__aeabi_atexit
 857              	.LVL57:
 858              	.LBB280:
 859              	.LBI280:
  21:/Users/ansel/Documents/DaisyExamples/DaisySP//Source/Filters/biquad.h ****     ~Biquad() {}
 860              		.loc 8 21 5 is_stmt 1 view .LVU220
  21:/Users/ansel/Documents/DaisyExamples/DaisySP//Source/Filters/biquad.h ****     ~Biquad() {}
 861              		.loc 8 21 5 is_stmt 0 view .LVU221
 862              	.LBE280:
  42:big_knob.cpp  **** 
 863              		.loc 1 42 12 view .LVU222
 864 001e 134A     		ldr	r2, .L38+4
 865 0020 1649     		ldr	r1, .L38+20
 866 0022 1748     		ldr	r0, .L38+24
 867 0024 FFF7FEFF 		bl	__aeabi_atexit
 868              	.LVL58:
  47:big_knob.cpp  **** GPIO  inPins[NUM_IN_PINS];
 869              		.loc 1 47 27 is_stmt 1 view .LVU223
 870 0028 164B     		ldr	r3, .L38+28
 871 002a 03F58270 		add	r0, r3, #260
 872              	.L33:
 873              	.LVL59:
 874              	.LBB281:
 875              	.LBI281:
 876              		.file 11 "/Users/ansel/Documents/DaisyExamples/libDaisy//src/per/gpio.h"
   1:/Users/ansel/Documents/DaisyExamples/libDaisy//src/per/gpio.h **** #pragma once
   2:/Users/ansel/Documents/DaisyExamples/libDaisy//src/per/gpio.h **** #ifndef DSY_GPIO_H
   3:/Users/ansel/Documents/DaisyExamples/libDaisy//src/per/gpio.h **** #define DSY_GPIO_H
   4:/Users/ansel/Documents/DaisyExamples/libDaisy//src/per/gpio.h **** #include "daisy_core.h"
   5:/Users/ansel/Documents/DaisyExamples/libDaisy//src/per/gpio.h **** 
   6:/Users/ansel/Documents/DaisyExamples/libDaisy//src/per/gpio.h **** #ifdef __cplusplus
   7:/Users/ansel/Documents/DaisyExamples/libDaisy//src/per/gpio.h **** 
   8:/Users/ansel/Documents/DaisyExamples/libDaisy//src/per/gpio.h **** namespace daisy
   9:/Users/ansel/Documents/DaisyExamples/libDaisy//src/per/gpio.h **** {
  10:/Users/ansel/Documents/DaisyExamples/libDaisy//src/per/gpio.h **** /** @brief General Purpose I/O control 
  11:/Users/ansel/Documents/DaisyExamples/libDaisy//src/per/gpio.h ****  *  @details peripheral control over a single GPIO
  12:/Users/ansel/Documents/DaisyExamples/libDaisy//src/per/gpio.h ****  *  @ingroup peripheral
  13:/Users/ansel/Documents/DaisyExamples/libDaisy//src/per/gpio.h ****  *   
  14:/Users/ansel/Documents/DaisyExamples/libDaisy//src/per/gpio.h ****  *  Button Input (with internal Pullup resistor)
  15:/Users/ansel/Documents/DaisyExamples/libDaisy//src/per/gpio.h ****  *  @include GPIO_Input.cpp 
  16:/Users/ansel/Documents/DaisyExamples/libDaisy//src/per/gpio.h ****  * 
  17:/Users/ansel/Documents/DaisyExamples/libDaisy//src/per/gpio.h ****  *  Output Example (perfect for blinking an LED)
ARM GAS  /var/folders/5r/jcdnhfj535b7rff_ygc02qhr0000gn/T//cct0A4AP.s 			page 33


  18:/Users/ansel/Documents/DaisyExamples/libDaisy//src/per/gpio.h ****  *  @include GPIO_Output.cpp
  19:/Users/ansel/Documents/DaisyExamples/libDaisy//src/per/gpio.h ****  * 
  20:/Users/ansel/Documents/DaisyExamples/libDaisy//src/per/gpio.h **** */
  21:/Users/ansel/Documents/DaisyExamples/libDaisy//src/per/gpio.h **** class GPIO
  22:/Users/ansel/Documents/DaisyExamples/libDaisy//src/per/gpio.h **** {
  23:/Users/ansel/Documents/DaisyExamples/libDaisy//src/per/gpio.h ****   public:
  24:/Users/ansel/Documents/DaisyExamples/libDaisy//src/per/gpio.h ****     /** @brief Mode of operation for the specified GPIO */
  25:/Users/ansel/Documents/DaisyExamples/libDaisy//src/per/gpio.h ****     enum class Mode
  26:/Users/ansel/Documents/DaisyExamples/libDaisy//src/per/gpio.h ****     {
  27:/Users/ansel/Documents/DaisyExamples/libDaisy//src/per/gpio.h ****         INPUT,     /**< Input for reading state of pin */
  28:/Users/ansel/Documents/DaisyExamples/libDaisy//src/per/gpio.h ****         OUTPUT,    /**< Output w/ push-pull configuration */
  29:/Users/ansel/Documents/DaisyExamples/libDaisy//src/per/gpio.h ****         OUTPUT_OD, /**< Output w/ open-drain configuration */
  30:/Users/ansel/Documents/DaisyExamples/libDaisy//src/per/gpio.h ****         ANALOG,    /**< Analog for connection to ADC or DAC peripheral */
  31:/Users/ansel/Documents/DaisyExamples/libDaisy//src/per/gpio.h ****     };
  32:/Users/ansel/Documents/DaisyExamples/libDaisy//src/per/gpio.h **** 
  33:/Users/ansel/Documents/DaisyExamples/libDaisy//src/per/gpio.h ****     /** @brief Configures whether an internal Pull up or Pull down resistor is used. 
  34:/Users/ansel/Documents/DaisyExamples/libDaisy//src/per/gpio.h ****      *  
  35:/Users/ansel/Documents/DaisyExamples/libDaisy//src/per/gpio.h ****      * Internal Pull up/down resistors are typically 40k ohms, and will be between
  36:/Users/ansel/Documents/DaisyExamples/libDaisy//src/per/gpio.h ****      * 30k and 50k
  37:/Users/ansel/Documents/DaisyExamples/libDaisy//src/per/gpio.h ****      * 
  38:/Users/ansel/Documents/DaisyExamples/libDaisy//src/per/gpio.h ****      * When the Pin is configured in Analog mode, the pull up/down resistors are
  39:/Users/ansel/Documents/DaisyExamples/libDaisy//src/per/gpio.h ****      * disabled by hardware. 
  40:/Users/ansel/Documents/DaisyExamples/libDaisy//src/per/gpio.h ****      */
  41:/Users/ansel/Documents/DaisyExamples/libDaisy//src/per/gpio.h ****     enum class Pull
  42:/Users/ansel/Documents/DaisyExamples/libDaisy//src/per/gpio.h ****     {
  43:/Users/ansel/Documents/DaisyExamples/libDaisy//src/per/gpio.h ****         NOPULL,   /**< No pull up resistor */
  44:/Users/ansel/Documents/DaisyExamples/libDaisy//src/per/gpio.h ****         PULLUP,   /**< Internal pull up enabled */
  45:/Users/ansel/Documents/DaisyExamples/libDaisy//src/per/gpio.h ****         PULLDOWN, /**< Internal pull down enabled*/
  46:/Users/ansel/Documents/DaisyExamples/libDaisy//src/per/gpio.h ****     };
  47:/Users/ansel/Documents/DaisyExamples/libDaisy//src/per/gpio.h **** 
  48:/Users/ansel/Documents/DaisyExamples/libDaisy//src/per/gpio.h ****     /** @brief Output speed controls the drive strength, and slew rate of the pin */
  49:/Users/ansel/Documents/DaisyExamples/libDaisy//src/per/gpio.h ****     enum class Speed
  50:/Users/ansel/Documents/DaisyExamples/libDaisy//src/per/gpio.h ****     {
  51:/Users/ansel/Documents/DaisyExamples/libDaisy//src/per/gpio.h ****         LOW,
  52:/Users/ansel/Documents/DaisyExamples/libDaisy//src/per/gpio.h ****         MEDIUM,
  53:/Users/ansel/Documents/DaisyExamples/libDaisy//src/per/gpio.h ****         HIGH,
  54:/Users/ansel/Documents/DaisyExamples/libDaisy//src/per/gpio.h ****         VERY_HIGH,
  55:/Users/ansel/Documents/DaisyExamples/libDaisy//src/per/gpio.h ****     };
  56:/Users/ansel/Documents/DaisyExamples/libDaisy//src/per/gpio.h **** 
  57:/Users/ansel/Documents/DaisyExamples/libDaisy//src/per/gpio.h ****     /** @brief Configuration for a given GPIO */
  58:/Users/ansel/Documents/DaisyExamples/libDaisy//src/per/gpio.h ****     struct Config
  59:/Users/ansel/Documents/DaisyExamples/libDaisy//src/per/gpio.h ****     {
  60:/Users/ansel/Documents/DaisyExamples/libDaisy//src/per/gpio.h ****         Pin   pin;
  61:/Users/ansel/Documents/DaisyExamples/libDaisy//src/per/gpio.h ****         Mode  mode;
  62:/Users/ansel/Documents/DaisyExamples/libDaisy//src/per/gpio.h ****         Pull  pull;
  63:/Users/ansel/Documents/DaisyExamples/libDaisy//src/per/gpio.h ****         Speed speed;
  64:/Users/ansel/Documents/DaisyExamples/libDaisy//src/per/gpio.h **** 
  65:/Users/ansel/Documents/DaisyExamples/libDaisy//src/per/gpio.h ****         /** Constructor with no arguments will prepare an invalid GPIO set as
  66:/Users/ansel/Documents/DaisyExamples/libDaisy//src/per/gpio.h ****          *  an input, with no pullup. 
  67:/Users/ansel/Documents/DaisyExamples/libDaisy//src/per/gpio.h ****          */
  68:/Users/ansel/Documents/DaisyExamples/libDaisy//src/per/gpio.h ****         Config()
  69:/Users/ansel/Documents/DaisyExamples/libDaisy//src/per/gpio.h ****         : pin(), mode(Mode::INPUT), pull(Pull::NOPULL), speed(Speed::LOW)
  70:/Users/ansel/Documents/DaisyExamples/libDaisy//src/per/gpio.h ****         {
  71:/Users/ansel/Documents/DaisyExamples/libDaisy//src/per/gpio.h ****         }
  72:/Users/ansel/Documents/DaisyExamples/libDaisy//src/per/gpio.h ****     };
  73:/Users/ansel/Documents/DaisyExamples/libDaisy//src/per/gpio.h **** 
  74:/Users/ansel/Documents/DaisyExamples/libDaisy//src/per/gpio.h ****     GPIO() {}
ARM GAS  /var/folders/5r/jcdnhfj535b7rff_ygc02qhr0000gn/T//cct0A4AP.s 			page 34


 877              		.loc 11 74 5 view .LVU224
 878              	.LBB282:
 879              	.LBI282:
  68:/Users/ansel/Documents/DaisyExamples/libDaisy//src/per/gpio.h ****         : pin(), mode(Mode::INPUT), pull(Pull::NOPULL), speed(Speed::LOW)
 880              		.loc 11 68 9 view .LVU225
 881              	.LBB283:
 882              	.LBB284:
 883              	.LBI284:
 884              		.file 12 "/Users/ansel/Documents/DaisyExamples/libDaisy//src/daisy_core.h"
   1:/Users/ansel/Documents/DaisyExamples/libDaisy//src/daisy_core.h **** #pragma once
   2:/Users/ansel/Documents/DaisyExamples/libDaisy//src/daisy_core.h **** #ifndef DSY_CORE_HW_H
   3:/Users/ansel/Documents/DaisyExamples/libDaisy//src/daisy_core.h **** #define DSY_CORE_HW_H /**< & */
   4:/Users/ansel/Documents/DaisyExamples/libDaisy//src/daisy_core.h **** #include <stdint.h>
   5:/Users/ansel/Documents/DaisyExamples/libDaisy//src/daisy_core.h **** #include <stdlib.h>
   6:/Users/ansel/Documents/DaisyExamples/libDaisy//src/daisy_core.h **** 
   7:/Users/ansel/Documents/DaisyExamples/libDaisy//src/daisy_core.h **** #if defined(_MSC_VER)
   8:/Users/ansel/Documents/DaisyExamples/libDaisy//src/daisy_core.h **** #define FORCE_INLINE __forceinline /**< & */
   9:/Users/ansel/Documents/DaisyExamples/libDaisy//src/daisy_core.h **** #elif defined(__clang__)
  10:/Users/ansel/Documents/DaisyExamples/libDaisy//src/daisy_core.h **** #define FORCE_INLINE inline __attribute__((always_inline)) /**< & */
  11:/Users/ansel/Documents/DaisyExamples/libDaisy//src/daisy_core.h **** #pragma clang diagnostic ignored "-Wduplicate-decl-specifier"
  12:/Users/ansel/Documents/DaisyExamples/libDaisy//src/daisy_core.h **** #elif defined(__GNUC__)
  13:/Users/ansel/Documents/DaisyExamples/libDaisy//src/daisy_core.h **** #define FORCE_INLINE inline __attribute__((always_inline)) /**< & */
  14:/Users/ansel/Documents/DaisyExamples/libDaisy//src/daisy_core.h **** #else
  15:/Users/ansel/Documents/DaisyExamples/libDaisy//src/daisy_core.h **** #error unknown compiler
  16:/Users/ansel/Documents/DaisyExamples/libDaisy//src/daisy_core.h **** #endif
  17:/Users/ansel/Documents/DaisyExamples/libDaisy//src/daisy_core.h **** 
  18:/Users/ansel/Documents/DaisyExamples/libDaisy//src/daisy_core.h **** /** @addtogroup utility
  19:/Users/ansel/Documents/DaisyExamples/libDaisy//src/daisy_core.h ****     @{
  20:/Users/ansel/Documents/DaisyExamples/libDaisy//src/daisy_core.h **** */
  21:/Users/ansel/Documents/DaisyExamples/libDaisy//src/daisy_core.h **** 
  22:/Users/ansel/Documents/DaisyExamples/libDaisy//src/daisy_core.h **** /** Macro for area of memory that is configured as cacheless
  23:/Users/ansel/Documents/DaisyExamples/libDaisy//src/daisy_core.h **** This should be used primarily for DMA buffers, and the like.
  24:/Users/ansel/Documents/DaisyExamples/libDaisy//src/daisy_core.h **** */
  25:/Users/ansel/Documents/DaisyExamples/libDaisy//src/daisy_core.h **** #define DMA_BUFFER_MEM_SECTION __attribute__((section(".sram1_bss")))
  26:/Users/ansel/Documents/DaisyExamples/libDaisy//src/daisy_core.h **** /** 
  27:/Users/ansel/Documents/DaisyExamples/libDaisy//src/daisy_core.h **** THE DTCM RAM section is also non-cached. However, is not suitable 
  28:/Users/ansel/Documents/DaisyExamples/libDaisy//src/daisy_core.h **** for DMA transfers. Performance is on par with internal SRAM w/ 
  29:/Users/ansel/Documents/DaisyExamples/libDaisy//src/daisy_core.h **** cache enabled.
  30:/Users/ansel/Documents/DaisyExamples/libDaisy//src/daisy_core.h **** */
  31:/Users/ansel/Documents/DaisyExamples/libDaisy//src/daisy_core.h **** #define DTCM_MEM_SECTION __attribute__((section(".dtcmram_bss")))
  32:/Users/ansel/Documents/DaisyExamples/libDaisy//src/daisy_core.h **** 
  33:/Users/ansel/Documents/DaisyExamples/libDaisy//src/daisy_core.h **** #define FBIPMAX 0.999985f             /**< close to 1.0f-LSB at 16 bit */
  34:/Users/ansel/Documents/DaisyExamples/libDaisy//src/daisy_core.h **** #define FBIPMIN (-FBIPMAX)            /**< - (1 - LSB) */
  35:/Users/ansel/Documents/DaisyExamples/libDaisy//src/daisy_core.h **** #define U82F_SCALE 0.0078740f         /**< 1 / 127 */
  36:/Users/ansel/Documents/DaisyExamples/libDaisy//src/daisy_core.h **** #define F2U8_SCALE 127.0f             /**< 128 - 1 */
  37:/Users/ansel/Documents/DaisyExamples/libDaisy//src/daisy_core.h **** #define S82F_SCALE 0.0078125f         /**< 1 / (2**7) */
  38:/Users/ansel/Documents/DaisyExamples/libDaisy//src/daisy_core.h **** #define F2S8_SCALE 127.0f             /**< (2 ** 7) - 1 */
  39:/Users/ansel/Documents/DaisyExamples/libDaisy//src/daisy_core.h **** #define S162F_SCALE 3.0517578125e-05f /**< 1 / (2** 15) */
  40:/Users/ansel/Documents/DaisyExamples/libDaisy//src/daisy_core.h **** #define F2S16_SCALE 32767.0f          /**< (2 ** 15) - 1 */
  41:/Users/ansel/Documents/DaisyExamples/libDaisy//src/daisy_core.h **** #define F2S24_SCALE 8388608.0f        /**< 2 ** 23 */
  42:/Users/ansel/Documents/DaisyExamples/libDaisy//src/daisy_core.h **** #define S242F_SCALE 1.192092896e-07f  /**< 1 / (2 ** 23) */
  43:/Users/ansel/Documents/DaisyExamples/libDaisy//src/daisy_core.h **** #define S24SIGN 0x800000              /**< 2 ** 23 */
  44:/Users/ansel/Documents/DaisyExamples/libDaisy//src/daisy_core.h **** #define S322F_SCALE 4.6566129e-10f    /**< 1 / (2** 31) */
  45:/Users/ansel/Documents/DaisyExamples/libDaisy//src/daisy_core.h **** #define F2S32_SCALE 2147483647.f      /**< (2 ** 31) - 1 */
  46:/Users/ansel/Documents/DaisyExamples/libDaisy//src/daisy_core.h **** 
  47:/Users/ansel/Documents/DaisyExamples/libDaisy//src/daisy_core.h **** 
  48:/Users/ansel/Documents/DaisyExamples/libDaisy//src/daisy_core.h **** /** shorthand macro for simplifying the reading of the left 
ARM GAS  /var/folders/5r/jcdnhfj535b7rff_ygc02qhr0000gn/T//cct0A4AP.s 			page 35


  49:/Users/ansel/Documents/DaisyExamples/libDaisy//src/daisy_core.h ****  *  channel of a non-interleaved output buffer named out */
  50:/Users/ansel/Documents/DaisyExamples/libDaisy//src/daisy_core.h **** #define OUT_L out[0]
  51:/Users/ansel/Documents/DaisyExamples/libDaisy//src/daisy_core.h **** 
  52:/Users/ansel/Documents/DaisyExamples/libDaisy//src/daisy_core.h **** /** shorthand macro for simplifying the reading of the right 
  53:/Users/ansel/Documents/DaisyExamples/libDaisy//src/daisy_core.h ****  *  channel of a non-interleaved output buffer named out */
  54:/Users/ansel/Documents/DaisyExamples/libDaisy//src/daisy_core.h **** #define OUT_R out[1]
  55:/Users/ansel/Documents/DaisyExamples/libDaisy//src/daisy_core.h **** 
  56:/Users/ansel/Documents/DaisyExamples/libDaisy//src/daisy_core.h **** /** shorthand macro for simplifying the reading of the left 
  57:/Users/ansel/Documents/DaisyExamples/libDaisy//src/daisy_core.h ****  *  channel of a non-interleaved input buffer named in */
  58:/Users/ansel/Documents/DaisyExamples/libDaisy//src/daisy_core.h **** #define IN_L in[0]
  59:/Users/ansel/Documents/DaisyExamples/libDaisy//src/daisy_core.h **** 
  60:/Users/ansel/Documents/DaisyExamples/libDaisy//src/daisy_core.h **** /** shorthand macro for simplifying the reading of the right 
  61:/Users/ansel/Documents/DaisyExamples/libDaisy//src/daisy_core.h ****  *  channel of a non-interleaved input buffer named in */
  62:/Users/ansel/Documents/DaisyExamples/libDaisy//src/daisy_core.h **** #define IN_R in[1]
  63:/Users/ansel/Documents/DaisyExamples/libDaisy//src/daisy_core.h **** 
  64:/Users/ansel/Documents/DaisyExamples/libDaisy//src/daisy_core.h **** /** 
  65:/Users/ansel/Documents/DaisyExamples/libDaisy//src/daisy_core.h ****     Computes cube.
  66:/Users/ansel/Documents/DaisyExamples/libDaisy//src/daisy_core.h ****     \param x Number to be cubed
  67:/Users/ansel/Documents/DaisyExamples/libDaisy//src/daisy_core.h ****     \return x ^ 3
  68:/Users/ansel/Documents/DaisyExamples/libDaisy//src/daisy_core.h **** */
  69:/Users/ansel/Documents/DaisyExamples/libDaisy//src/daisy_core.h **** FORCE_INLINE float cube(float x)
  70:/Users/ansel/Documents/DaisyExamples/libDaisy//src/daisy_core.h **** {
  71:/Users/ansel/Documents/DaisyExamples/libDaisy//src/daisy_core.h ****     return (x * x) * x;
  72:/Users/ansel/Documents/DaisyExamples/libDaisy//src/daisy_core.h **** }
  73:/Users/ansel/Documents/DaisyExamples/libDaisy//src/daisy_core.h **** 
  74:/Users/ansel/Documents/DaisyExamples/libDaisy//src/daisy_core.h **** /** 
  75:/Users/ansel/Documents/DaisyExamples/libDaisy//src/daisy_core.h ****     Converts unsigned 8-bit to float
  76:/Users/ansel/Documents/DaisyExamples/libDaisy//src/daisy_core.h ****     \param x Number to be scaled.
  77:/Users/ansel/Documents/DaisyExamples/libDaisy//src/daisy_core.h ****     \return Scaled number.
  78:/Users/ansel/Documents/DaisyExamples/libDaisy//src/daisy_core.h **** */
  79:/Users/ansel/Documents/DaisyExamples/libDaisy//src/daisy_core.h **** FORCE_INLINE float u82f(uint8_t x)
  80:/Users/ansel/Documents/DaisyExamples/libDaisy//src/daisy_core.h **** {
  81:/Users/ansel/Documents/DaisyExamples/libDaisy//src/daisy_core.h ****     return ((float)x - 127.f) * U82F_SCALE;
  82:/Users/ansel/Documents/DaisyExamples/libDaisy//src/daisy_core.h **** }
  83:/Users/ansel/Documents/DaisyExamples/libDaisy//src/daisy_core.h **** 
  84:/Users/ansel/Documents/DaisyExamples/libDaisy//src/daisy_core.h **** /**
  85:/Users/ansel/Documents/DaisyExamples/libDaisy//src/daisy_core.h ****     Converts float to unsigned 8-bit
  86:/Users/ansel/Documents/DaisyExamples/libDaisy//src/daisy_core.h **** */
  87:/Users/ansel/Documents/DaisyExamples/libDaisy//src/daisy_core.h **** FORCE_INLINE uint8_t f2u8(float x)
  88:/Users/ansel/Documents/DaisyExamples/libDaisy//src/daisy_core.h **** {
  89:/Users/ansel/Documents/DaisyExamples/libDaisy//src/daisy_core.h ****     x = x <= FBIPMIN ? FBIPMIN : x;
  90:/Users/ansel/Documents/DaisyExamples/libDaisy//src/daisy_core.h ****     x = x >= FBIPMAX ? FBIPMAX : x;
  91:/Users/ansel/Documents/DaisyExamples/libDaisy//src/daisy_core.h ****     return (uint8_t)((x * F2U8_SCALE) + F2U8_SCALE);
  92:/Users/ansel/Documents/DaisyExamples/libDaisy//src/daisy_core.h **** }
  93:/Users/ansel/Documents/DaisyExamples/libDaisy//src/daisy_core.h **** 
  94:/Users/ansel/Documents/DaisyExamples/libDaisy//src/daisy_core.h **** 
  95:/Users/ansel/Documents/DaisyExamples/libDaisy//src/daisy_core.h **** /** 
  96:/Users/ansel/Documents/DaisyExamples/libDaisy//src/daisy_core.h ****     Converts Signed 8-bit to float
  97:/Users/ansel/Documents/DaisyExamples/libDaisy//src/daisy_core.h ****     \param x Number to be scaled.
  98:/Users/ansel/Documents/DaisyExamples/libDaisy//src/daisy_core.h ****     \return Scaled number.
  99:/Users/ansel/Documents/DaisyExamples/libDaisy//src/daisy_core.h **** */
 100:/Users/ansel/Documents/DaisyExamples/libDaisy//src/daisy_core.h **** FORCE_INLINE float s82f(int8_t x)
 101:/Users/ansel/Documents/DaisyExamples/libDaisy//src/daisy_core.h **** {
 102:/Users/ansel/Documents/DaisyExamples/libDaisy//src/daisy_core.h ****     return (float)x * S82F_SCALE;
 103:/Users/ansel/Documents/DaisyExamples/libDaisy//src/daisy_core.h **** }
 104:/Users/ansel/Documents/DaisyExamples/libDaisy//src/daisy_core.h **** 
 105:/Users/ansel/Documents/DaisyExamples/libDaisy//src/daisy_core.h **** /**
ARM GAS  /var/folders/5r/jcdnhfj535b7rff_ygc02qhr0000gn/T//cct0A4AP.s 			page 36


 106:/Users/ansel/Documents/DaisyExamples/libDaisy//src/daisy_core.h ****     Converts float to Signed 8-bit
 107:/Users/ansel/Documents/DaisyExamples/libDaisy//src/daisy_core.h **** */
 108:/Users/ansel/Documents/DaisyExamples/libDaisy//src/daisy_core.h **** FORCE_INLINE int8_t f2s8(float x)
 109:/Users/ansel/Documents/DaisyExamples/libDaisy//src/daisy_core.h **** {
 110:/Users/ansel/Documents/DaisyExamples/libDaisy//src/daisy_core.h ****     x = x <= FBIPMIN ? FBIPMIN : x;
 111:/Users/ansel/Documents/DaisyExamples/libDaisy//src/daisy_core.h ****     x = x >= FBIPMAX ? FBIPMAX : x;
 112:/Users/ansel/Documents/DaisyExamples/libDaisy//src/daisy_core.h ****     return (int32_t)(x * F2S8_SCALE);
 113:/Users/ansel/Documents/DaisyExamples/libDaisy//src/daisy_core.h **** }
 114:/Users/ansel/Documents/DaisyExamples/libDaisy//src/daisy_core.h **** 
 115:/Users/ansel/Documents/DaisyExamples/libDaisy//src/daisy_core.h **** /** 
 116:/Users/ansel/Documents/DaisyExamples/libDaisy//src/daisy_core.h ****     Converts Signed 16-bit to float
 117:/Users/ansel/Documents/DaisyExamples/libDaisy//src/daisy_core.h ****     \param x Number to be scaled.
 118:/Users/ansel/Documents/DaisyExamples/libDaisy//src/daisy_core.h ****     \return Scaled number.
 119:/Users/ansel/Documents/DaisyExamples/libDaisy//src/daisy_core.h **** */
 120:/Users/ansel/Documents/DaisyExamples/libDaisy//src/daisy_core.h **** FORCE_INLINE float s162f(int16_t x)
 121:/Users/ansel/Documents/DaisyExamples/libDaisy//src/daisy_core.h **** {
 122:/Users/ansel/Documents/DaisyExamples/libDaisy//src/daisy_core.h ****     return (float)x * S162F_SCALE;
 123:/Users/ansel/Documents/DaisyExamples/libDaisy//src/daisy_core.h **** }
 124:/Users/ansel/Documents/DaisyExamples/libDaisy//src/daisy_core.h **** 
 125:/Users/ansel/Documents/DaisyExamples/libDaisy//src/daisy_core.h **** /**
 126:/Users/ansel/Documents/DaisyExamples/libDaisy//src/daisy_core.h ****     Converts float to Signed 16-bit
 127:/Users/ansel/Documents/DaisyExamples/libDaisy//src/daisy_core.h **** */
 128:/Users/ansel/Documents/DaisyExamples/libDaisy//src/daisy_core.h **** FORCE_INLINE int16_t f2s16(float x)
 129:/Users/ansel/Documents/DaisyExamples/libDaisy//src/daisy_core.h **** {
 130:/Users/ansel/Documents/DaisyExamples/libDaisy//src/daisy_core.h ****     x = x <= FBIPMIN ? FBIPMIN : x;
 131:/Users/ansel/Documents/DaisyExamples/libDaisy//src/daisy_core.h ****     x = x >= FBIPMAX ? FBIPMAX : x;
 132:/Users/ansel/Documents/DaisyExamples/libDaisy//src/daisy_core.h ****     return (int32_t)(x * F2S16_SCALE);
 133:/Users/ansel/Documents/DaisyExamples/libDaisy//src/daisy_core.h **** }
 134:/Users/ansel/Documents/DaisyExamples/libDaisy//src/daisy_core.h **** 
 135:/Users/ansel/Documents/DaisyExamples/libDaisy//src/daisy_core.h **** /**
 136:/Users/ansel/Documents/DaisyExamples/libDaisy//src/daisy_core.h ****     Converts Signed 24-bit to float
 137:/Users/ansel/Documents/DaisyExamples/libDaisy//src/daisy_core.h ****  */
 138:/Users/ansel/Documents/DaisyExamples/libDaisy//src/daisy_core.h **** FORCE_INLINE float s242f(int32_t x)
 139:/Users/ansel/Documents/DaisyExamples/libDaisy//src/daisy_core.h **** {
 140:/Users/ansel/Documents/DaisyExamples/libDaisy//src/daisy_core.h ****     x = (x ^ S24SIGN) - S24SIGN; //sign extend aka ((x<<8)>>8)
 141:/Users/ansel/Documents/DaisyExamples/libDaisy//src/daisy_core.h ****     return (float)x * S242F_SCALE;
 142:/Users/ansel/Documents/DaisyExamples/libDaisy//src/daisy_core.h **** }
 143:/Users/ansel/Documents/DaisyExamples/libDaisy//src/daisy_core.h **** /**
 144:/Users/ansel/Documents/DaisyExamples/libDaisy//src/daisy_core.h ****     Converts float to Signed 24-bit
 145:/Users/ansel/Documents/DaisyExamples/libDaisy//src/daisy_core.h ****  */
 146:/Users/ansel/Documents/DaisyExamples/libDaisy//src/daisy_core.h **** FORCE_INLINE int32_t f2s24(float x)
 147:/Users/ansel/Documents/DaisyExamples/libDaisy//src/daisy_core.h **** {
 148:/Users/ansel/Documents/DaisyExamples/libDaisy//src/daisy_core.h ****     x = x <= FBIPMIN ? FBIPMIN : x;
 149:/Users/ansel/Documents/DaisyExamples/libDaisy//src/daisy_core.h ****     x = x >= FBIPMAX ? FBIPMAX : x;
 150:/Users/ansel/Documents/DaisyExamples/libDaisy//src/daisy_core.h ****     return (int32_t)(x * F2S24_SCALE);
 151:/Users/ansel/Documents/DaisyExamples/libDaisy//src/daisy_core.h **** }
 152:/Users/ansel/Documents/DaisyExamples/libDaisy//src/daisy_core.h **** 
 153:/Users/ansel/Documents/DaisyExamples/libDaisy//src/daisy_core.h **** /**
 154:/Users/ansel/Documents/DaisyExamples/libDaisy//src/daisy_core.h ****     Converts Signed 32-bit to float
 155:/Users/ansel/Documents/DaisyExamples/libDaisy//src/daisy_core.h ****  */
 156:/Users/ansel/Documents/DaisyExamples/libDaisy//src/daisy_core.h **** FORCE_INLINE float s322f(int32_t x)
 157:/Users/ansel/Documents/DaisyExamples/libDaisy//src/daisy_core.h **** {
 158:/Users/ansel/Documents/DaisyExamples/libDaisy//src/daisy_core.h ****     return (float)x * S322F_SCALE;
 159:/Users/ansel/Documents/DaisyExamples/libDaisy//src/daisy_core.h **** }
 160:/Users/ansel/Documents/DaisyExamples/libDaisy//src/daisy_core.h **** /**
 161:/Users/ansel/Documents/DaisyExamples/libDaisy//src/daisy_core.h ****     Converts float to Signed 24-bit
 162:/Users/ansel/Documents/DaisyExamples/libDaisy//src/daisy_core.h ****  */
ARM GAS  /var/folders/5r/jcdnhfj535b7rff_ygc02qhr0000gn/T//cct0A4AP.s 			page 37


 163:/Users/ansel/Documents/DaisyExamples/libDaisy//src/daisy_core.h **** FORCE_INLINE int32_t f2s32(float x)
 164:/Users/ansel/Documents/DaisyExamples/libDaisy//src/daisy_core.h **** {
 165:/Users/ansel/Documents/DaisyExamples/libDaisy//src/daisy_core.h ****     x = x <= FBIPMIN ? FBIPMIN : x;
 166:/Users/ansel/Documents/DaisyExamples/libDaisy//src/daisy_core.h ****     x = x >= FBIPMAX ? FBIPMAX : x;
 167:/Users/ansel/Documents/DaisyExamples/libDaisy//src/daisy_core.h ****     return (int32_t)(x * F2S32_SCALE);
 168:/Users/ansel/Documents/DaisyExamples/libDaisy//src/daisy_core.h **** }
 169:/Users/ansel/Documents/DaisyExamples/libDaisy//src/daisy_core.h **** 
 170:/Users/ansel/Documents/DaisyExamples/libDaisy//src/daisy_core.h **** 
 171:/Users/ansel/Documents/DaisyExamples/libDaisy//src/daisy_core.h **** /** Enums and a simple struct for defining a hardware pin on the MCU
 172:/Users/ansel/Documents/DaisyExamples/libDaisy//src/daisy_core.h ****  *  These correlate with the stm32 datasheet, and are used to configure
 173:/Users/ansel/Documents/DaisyExamples/libDaisy//src/daisy_core.h ****  *  the hardware.
 174:/Users/ansel/Documents/DaisyExamples/libDaisy//src/daisy_core.h ****  * 
 175:/Users/ansel/Documents/DaisyExamples/libDaisy//src/daisy_core.h ****  *  This along with the dsy_gpio_pin class should no longer be used.
 176:/Users/ansel/Documents/DaisyExamples/libDaisy//src/daisy_core.h ****  *  They are available for backwards compatability. 
 177:/Users/ansel/Documents/DaisyExamples/libDaisy//src/daisy_core.h ****  * 
 178:/Users/ansel/Documents/DaisyExamples/libDaisy//src/daisy_core.h ****  *  Please use GPIOPort enum and the Pin struct instead.
 179:/Users/ansel/Documents/DaisyExamples/libDaisy//src/daisy_core.h ****  */
 180:/Users/ansel/Documents/DaisyExamples/libDaisy//src/daisy_core.h **** typedef enum
 181:/Users/ansel/Documents/DaisyExamples/libDaisy//src/daisy_core.h **** {
 182:/Users/ansel/Documents/DaisyExamples/libDaisy//src/daisy_core.h ****     DSY_GPIOA, /**< & */
 183:/Users/ansel/Documents/DaisyExamples/libDaisy//src/daisy_core.h ****     DSY_GPIOB, /**< & */
 184:/Users/ansel/Documents/DaisyExamples/libDaisy//src/daisy_core.h ****     DSY_GPIOC, /**< & */
 185:/Users/ansel/Documents/DaisyExamples/libDaisy//src/daisy_core.h ****     DSY_GPIOD, /**< & */
 186:/Users/ansel/Documents/DaisyExamples/libDaisy//src/daisy_core.h ****     DSY_GPIOE, /**< & */
 187:/Users/ansel/Documents/DaisyExamples/libDaisy//src/daisy_core.h ****     DSY_GPIOF, /**< & */
 188:/Users/ansel/Documents/DaisyExamples/libDaisy//src/daisy_core.h ****     DSY_GPIOG, /**< & */
 189:/Users/ansel/Documents/DaisyExamples/libDaisy//src/daisy_core.h ****     DSY_GPIOH, /**< & */
 190:/Users/ansel/Documents/DaisyExamples/libDaisy//src/daisy_core.h ****     DSY_GPIOI, /**< & */
 191:/Users/ansel/Documents/DaisyExamples/libDaisy//src/daisy_core.h ****     DSY_GPIOJ, /**< & */
 192:/Users/ansel/Documents/DaisyExamples/libDaisy//src/daisy_core.h ****     DSY_GPIOK, /**< & */
 193:/Users/ansel/Documents/DaisyExamples/libDaisy//src/daisy_core.h ****     DSY_GPIOX, /** This is a non-existant port for unsupported bits of hardware. */
 194:/Users/ansel/Documents/DaisyExamples/libDaisy//src/daisy_core.h ****     DSY_GPIO_LAST, /** Final enum member */
 195:/Users/ansel/Documents/DaisyExamples/libDaisy//src/daisy_core.h **** } dsy_gpio_port;
 196:/Users/ansel/Documents/DaisyExamples/libDaisy//src/daisy_core.h **** 
 197:/Users/ansel/Documents/DaisyExamples/libDaisy//src/daisy_core.h **** /** Hardware define pins 
 198:/Users/ansel/Documents/DaisyExamples/libDaisy//src/daisy_core.h ****  *  
 199:/Users/ansel/Documents/DaisyExamples/libDaisy//src/daisy_core.h ****  *  The dsy_gpio_pin struct should no longer be used, and is only available for
 200:/Users/ansel/Documents/DaisyExamples/libDaisy//src/daisy_core.h ****  *  backwards compatability.
 201:/Users/ansel/Documents/DaisyExamples/libDaisy//src/daisy_core.h ****  * 
 202:/Users/ansel/Documents/DaisyExamples/libDaisy//src/daisy_core.h ****  *  Please use Pin struct instead.
 203:/Users/ansel/Documents/DaisyExamples/libDaisy//src/daisy_core.h ****  */
 204:/Users/ansel/Documents/DaisyExamples/libDaisy//src/daisy_core.h **** typedef struct
 205:/Users/ansel/Documents/DaisyExamples/libDaisy//src/daisy_core.h **** {
 206:/Users/ansel/Documents/DaisyExamples/libDaisy//src/daisy_core.h ****     dsy_gpio_port port; /**< & */
 207:/Users/ansel/Documents/DaisyExamples/libDaisy//src/daisy_core.h ****     uint8_t       pin;  /**< number 0-15 */
 208:/Users/ansel/Documents/DaisyExamples/libDaisy//src/daisy_core.h **** } dsy_gpio_pin;
 209:/Users/ansel/Documents/DaisyExamples/libDaisy//src/daisy_core.h **** 
 210:/Users/ansel/Documents/DaisyExamples/libDaisy//src/daisy_core.h **** /** Helper for creating pins from port/pin combos easily
 211:/Users/ansel/Documents/DaisyExamples/libDaisy//src/daisy_core.h ****  * 
 212:/Users/ansel/Documents/DaisyExamples/libDaisy//src/daisy_core.h ****  *  The dsy_gpio_pin struct should no longer be used, and is only available for
 213:/Users/ansel/Documents/DaisyExamples/libDaisy//src/daisy_core.h ****  *  backwards compatability.
 214:/Users/ansel/Documents/DaisyExamples/libDaisy//src/daisy_core.h ****  * 
 215:/Users/ansel/Documents/DaisyExamples/libDaisy//src/daisy_core.h ****  *  Please use Pin struct instead.
 216:/Users/ansel/Documents/DaisyExamples/libDaisy//src/daisy_core.h **** */
 217:/Users/ansel/Documents/DaisyExamples/libDaisy//src/daisy_core.h **** FORCE_INLINE dsy_gpio_pin dsy_pin(dsy_gpio_port port, uint8_t pin)
 218:/Users/ansel/Documents/DaisyExamples/libDaisy//src/daisy_core.h **** {
 219:/Users/ansel/Documents/DaisyExamples/libDaisy//src/daisy_core.h ****     dsy_gpio_pin p;
ARM GAS  /var/folders/5r/jcdnhfj535b7rff_ygc02qhr0000gn/T//cct0A4AP.s 			page 38


 220:/Users/ansel/Documents/DaisyExamples/libDaisy//src/daisy_core.h ****     p.port = port;
 221:/Users/ansel/Documents/DaisyExamples/libDaisy//src/daisy_core.h ****     p.pin  = pin;
 222:/Users/ansel/Documents/DaisyExamples/libDaisy//src/daisy_core.h ****     return p;
 223:/Users/ansel/Documents/DaisyExamples/libDaisy//src/daisy_core.h **** }
 224:/Users/ansel/Documents/DaisyExamples/libDaisy//src/daisy_core.h **** 
 225:/Users/ansel/Documents/DaisyExamples/libDaisy//src/daisy_core.h **** /** Helper for testing sameness of two dsy_gpio_pins
 226:/Users/ansel/Documents/DaisyExamples/libDaisy//src/daisy_core.h ****  *  \return    1 if same, 0 if different
 227:/Users/ansel/Documents/DaisyExamples/libDaisy//src/daisy_core.h ****  * 
 228:/Users/ansel/Documents/DaisyExamples/libDaisy//src/daisy_core.h ****  *  The dsy_gpio_pin struct should no longer be used, and is only available for
 229:/Users/ansel/Documents/DaisyExamples/libDaisy//src/daisy_core.h ****  *  backwards compatability.
 230:/Users/ansel/Documents/DaisyExamples/libDaisy//src/daisy_core.h ****  * 
 231:/Users/ansel/Documents/DaisyExamples/libDaisy//src/daisy_core.h ****  *  Please use Pin struct instead.
 232:/Users/ansel/Documents/DaisyExamples/libDaisy//src/daisy_core.h ****  */
 233:/Users/ansel/Documents/DaisyExamples/libDaisy//src/daisy_core.h **** FORCE_INLINE uint8_t dsy_pin_cmp(dsy_gpio_pin *a, dsy_gpio_pin *b)
 234:/Users/ansel/Documents/DaisyExamples/libDaisy//src/daisy_core.h **** {
 235:/Users/ansel/Documents/DaisyExamples/libDaisy//src/daisy_core.h ****     return ((a->port == b->port) && (a->pin == b->pin));
 236:/Users/ansel/Documents/DaisyExamples/libDaisy//src/daisy_core.h **** }
 237:/Users/ansel/Documents/DaisyExamples/libDaisy//src/daisy_core.h **** 
 238:/Users/ansel/Documents/DaisyExamples/libDaisy//src/daisy_core.h **** #ifdef __cplusplus
 239:/Users/ansel/Documents/DaisyExamples/libDaisy//src/daisy_core.h **** 
 240:/Users/ansel/Documents/DaisyExamples/libDaisy//src/daisy_core.h **** namespace daisy
 241:/Users/ansel/Documents/DaisyExamples/libDaisy//src/daisy_core.h **** {
 242:/Users/ansel/Documents/DaisyExamples/libDaisy//src/daisy_core.h **** /** @brief GPIO Port names */
 243:/Users/ansel/Documents/DaisyExamples/libDaisy//src/daisy_core.h **** enum GPIOPort
 244:/Users/ansel/Documents/DaisyExamples/libDaisy//src/daisy_core.h **** {
 245:/Users/ansel/Documents/DaisyExamples/libDaisy//src/daisy_core.h ****     PORTA, /**< Port A */
 246:/Users/ansel/Documents/DaisyExamples/libDaisy//src/daisy_core.h ****     PORTB, /**< Port B */
 247:/Users/ansel/Documents/DaisyExamples/libDaisy//src/daisy_core.h ****     PORTC, /**< Port C */
 248:/Users/ansel/Documents/DaisyExamples/libDaisy//src/daisy_core.h ****     PORTD, /**< Port D */
 249:/Users/ansel/Documents/DaisyExamples/libDaisy//src/daisy_core.h ****     PORTE, /**< Port E */
 250:/Users/ansel/Documents/DaisyExamples/libDaisy//src/daisy_core.h ****     PORTF, /**< Port F */
 251:/Users/ansel/Documents/DaisyExamples/libDaisy//src/daisy_core.h ****     PORTG, /**< Port G */
 252:/Users/ansel/Documents/DaisyExamples/libDaisy//src/daisy_core.h ****     PORTH, /**< Port H */
 253:/Users/ansel/Documents/DaisyExamples/libDaisy//src/daisy_core.h ****     PORTI, /**< Port I */
 254:/Users/ansel/Documents/DaisyExamples/libDaisy//src/daisy_core.h ****     PORTJ, /**< Port J */
 255:/Users/ansel/Documents/DaisyExamples/libDaisy//src/daisy_core.h ****     PORTK, /**< Port K */
 256:/Users/ansel/Documents/DaisyExamples/libDaisy//src/daisy_core.h ****     PORTX, /**< Used as a dummy port to signal an invalid pin. */
 257:/Users/ansel/Documents/DaisyExamples/libDaisy//src/daisy_core.h **** };
 258:/Users/ansel/Documents/DaisyExamples/libDaisy//src/daisy_core.h **** 
 259:/Users/ansel/Documents/DaisyExamples/libDaisy//src/daisy_core.h **** /** @brief representation of hardware port/pin combination */
 260:/Users/ansel/Documents/DaisyExamples/libDaisy//src/daisy_core.h **** struct Pin
 261:/Users/ansel/Documents/DaisyExamples/libDaisy//src/daisy_core.h **** {
 262:/Users/ansel/Documents/DaisyExamples/libDaisy//src/daisy_core.h ****     GPIOPort port;
 263:/Users/ansel/Documents/DaisyExamples/libDaisy//src/daisy_core.h ****     uint8_t  pin;
 264:/Users/ansel/Documents/DaisyExamples/libDaisy//src/daisy_core.h **** 
 265:/Users/ansel/Documents/DaisyExamples/libDaisy//src/daisy_core.h ****     /** @brief Constructor creates a valid pin. 
 266:/Users/ansel/Documents/DaisyExamples/libDaisy//src/daisy_core.h ****      *  @param pt GPIOPort between PA, and PK corresponding to STM32 Port.
 267:/Users/ansel/Documents/DaisyExamples/libDaisy//src/daisy_core.h ****      *  @param pn pin number in range of 0-15
 268:/Users/ansel/Documents/DaisyExamples/libDaisy//src/daisy_core.h ****     */
 269:/Users/ansel/Documents/DaisyExamples/libDaisy//src/daisy_core.h ****     constexpr Pin(const GPIOPort pt, const uint8_t pn) : port(pt), pin(pn) {}
 270:/Users/ansel/Documents/DaisyExamples/libDaisy//src/daisy_core.h **** 
 271:/Users/ansel/Documents/DaisyExamples/libDaisy//src/daisy_core.h ****     /** @brief Basic Constructor creates an invalid Pin object */
 272:/Users/ansel/Documents/DaisyExamples/libDaisy//src/daisy_core.h ****     constexpr Pin() : port(PORTX), pin(255) {}
 885              		.loc 12 272 15 view .LVU226
 886              	.LBE284:
 887              	.LBE283:
 888              	.LBE282:
ARM GAS  /var/folders/5r/jcdnhfj535b7rff_ygc02qhr0000gn/T//cct0A4AP.s 			page 39


 889              	.LBE281:
  47:big_knob.cpp  **** GPIO  inPins[NUM_IN_PINS];
 890              		.loc 1 47 27 is_stmt 0 view .LVU227
 891 002e 1433     		adds	r3, r3, #20
 892              	.LVL60:
 893              	.LBB295:
 894              	.LBB292:
 895              	.LBB289:
  69:/Users/ansel/Documents/DaisyExamples/libDaisy//src/per/gpio.h ****         {
 896              		.loc 11 69 18 view .LVU228
 897 0030 0022     		movs	r2, #0
 898              	.LBB287:
 899              	.LBB285:
 900              		.loc 12 272 23 view .LVU229
 901 0032 4FF60B71 		movw	r1, #65291
 902              	.LBE285:
 903              	.LBE287:
 904              	.LBE289:
 905              	.LBE292:
 906              	.LBE295:
  47:big_knob.cpp  **** GPIO  inPins[NUM_IN_PINS];
 907              		.loc 1 47 27 view .LVU230
 908 0036 8342     		cmp	r3, r0
 909              	.LBB296:
 910              	.LBB293:
 911              	.LBB290:
  69:/Users/ansel/Documents/DaisyExamples/libDaisy//src/per/gpio.h ****         {
 912              		.loc 11 69 57 view .LVU231
 913 0038 43F8082C 		str	r2, [r3, #-8]
 914              	.LBB288:
 915              	.LBB286:
 916              		.loc 12 272 23 view .LVU232
 917 003c 23F8141C 		strh	r1, [r3, #-20]	@ movhi
 918              	.LVL61:
 919              		.loc 12 272 23 view .LVU233
 920              	.LBE286:
 921              	.LBE288:
 922              	.LBE290:
 923              	.LBE293:
 924              	.LBE296:
  47:big_knob.cpp  **** GPIO  inPins[NUM_IN_PINS];
 925              		.loc 1 47 27 is_stmt 1 view .LVU234
 926              	.LBB297:
 927              	.LBB294:
 928              	.LBB291:
  69:/Users/ansel/Documents/DaisyExamples/libDaisy//src/per/gpio.h ****         {
 929              		.loc 11 69 37 is_stmt 0 view .LVU235
 930 0040 43E90422 		strd	r2, r2, [r3, #-16]
 931              	.LBE291:
 932              	.LBE294:
 933              	.LBE297:
  47:big_knob.cpp  **** GPIO  inPins[NUM_IN_PINS];
 934              		.loc 1 47 27 view .LVU236
 935 0044 F3D1     		bne	.L33
 936 0046 104B     		ldr	r3, .L38+32
 937 0048 03F1B400 		add	r0, r3, #180
 938              	.L34:
ARM GAS  /var/folders/5r/jcdnhfj535b7rff_ygc02qhr0000gn/T//cct0A4AP.s 			page 40


 939              	.LVL62:
 940              	.LBB298:
 941              	.LBI298:
 942              		.loc 11 74 5 is_stmt 1 view .LVU237
 943              	.LBB299:
 944              	.LBI299:
  68:/Users/ansel/Documents/DaisyExamples/libDaisy//src/per/gpio.h ****         : pin(), mode(Mode::INPUT), pull(Pull::NOPULL), speed(Speed::LOW)
 945              		.loc 11 68 9 view .LVU238
 946              	.LBB300:
 947              	.LBB301:
 948              	.LBI301:
 949              		.loc 12 272 15 view .LVU239
 950              	.LBE301:
 951              	.LBE300:
 952              	.LBE299:
 953              	.LBE298:
  48:big_knob.cpp  **** int   patchbay[NUM_OUT_PINS][NUM_IN_PINS];
 954              		.loc 1 48 25 is_stmt 0 view .LVU240
 955 004c 1433     		adds	r3, r3, #20
 956              	.LVL63:
 957              	.LBB312:
 958              	.LBB309:
 959              	.LBB306:
  69:/Users/ansel/Documents/DaisyExamples/libDaisy//src/per/gpio.h ****         {
 960              		.loc 11 69 18 view .LVU241
 961 004e 0022     		movs	r2, #0
 962              	.LBB304:
 963              	.LBB302:
 964              		.loc 12 272 23 view .LVU242
 965 0050 4FF60B71 		movw	r1, #65291
 966              	.LBE302:
 967              	.LBE304:
 968              	.LBE306:
 969              	.LBE309:
 970              	.LBE312:
  48:big_knob.cpp  **** int   patchbay[NUM_OUT_PINS][NUM_IN_PINS];
 971              		.loc 1 48 25 view .LVU243
 972 0054 9842     		cmp	r0, r3
 973              	.LBB313:
 974              	.LBB310:
 975              	.LBB307:
  69:/Users/ansel/Documents/DaisyExamples/libDaisy//src/per/gpio.h ****         {
 976              		.loc 11 69 57 view .LVU244
 977 0056 43F8082C 		str	r2, [r3, #-8]
 978              	.LBB305:
 979              	.LBB303:
 980              		.loc 12 272 23 view .LVU245
 981 005a 23F8141C 		strh	r1, [r3, #-20]	@ movhi
 982              	.LVL64:
 983              		.loc 12 272 23 view .LVU246
 984              	.LBE303:
 985              	.LBE305:
 986              	.LBE307:
 987              	.LBE310:
 988              	.LBE313:
  48:big_knob.cpp  **** int   patchbay[NUM_OUT_PINS][NUM_IN_PINS];
 989              		.loc 1 48 25 is_stmt 1 view .LVU247
ARM GAS  /var/folders/5r/jcdnhfj535b7rff_ygc02qhr0000gn/T//cct0A4AP.s 			page 41


 990              	.LBB314:
 991              	.LBB311:
 992              	.LBB308:
  69:/Users/ansel/Documents/DaisyExamples/libDaisy//src/per/gpio.h ****         {
 993              		.loc 11 69 37 is_stmt 0 view .LVU248
 994 005e 43E90422 		strd	r2, r2, [r3, #-16]
 995              	.LBE308:
 996              	.LBE311:
 997              	.LBE314:
  48:big_knob.cpp  **** int   patchbay[NUM_OUT_PINS][NUM_IN_PINS];
 998              		.loc 1 48 25 view .LVU249
 999 0062 F3D1     		bne	.L34
 1000              	.LBE315:
 1001              	.LBE316:
 1002              		.loc 1 135 1 view .LVU250
 1003 0064 08BD     		pop	{r3, pc}
 1004              	.L39:
 1005 0066 00BF     		.align	2
 1006              	.L38:
 1007 0068 00000000 		.word	hw
 1008 006c 00000000 		.word	__dso_handle
 1009 0070 00000000 		.word	_ZN5daisy9DaisySeedD1Ev
 1010 0074 00000000 		.word	_ZN7daisysp10OscillatorD1Ev
 1011 0078 00000000 		.word	osc1
 1012 007c 00000000 		.word	_ZN7daisysp6BiquadD1Ev
 1013 0080 00000000 		.word	flt1
 1014 0084 00000000 		.word	outPins
 1015 0088 00000000 		.word	inPins
 1016              		.cfi_endproc
 1017              	.LFE5364:
 1019              		.section	.init_array,"aw",%init_array
 1020              		.align	2
 1021 0000 00000000 		.word	_GLOBAL__sub_I_hw(target1)
 1022              		.global	patchbay
 1023              		.section	.bss.patchbay,"aw",%nobits
 1024              		.align	2
 1027              	patchbay:
 1028 0000 00000000 		.space	468
 1028      00000000 
 1028      00000000 
 1028      00000000 
 1028      00000000 
 1029              		.global	inPins
 1030              		.section	.bss.inPins,"aw",%nobits
 1031              		.align	2
 1034              	inPins:
 1035 0000 00000000 		.space	180
 1035      00000000 
 1035      00000000 
 1035      00000000 
 1035      00000000 
 1036              		.global	outPins
 1037              		.section	.bss.outPins,"aw",%nobits
 1038              		.align	2
 1041              	outPins:
 1042 0000 00000000 		.space	260
 1042      00000000 
ARM GAS  /var/folders/5r/jcdnhfj535b7rff_ygc02qhr0000gn/T//cct0A4AP.s 			page 42


 1042      00000000 
 1042      00000000 
 1042      00000000 
 1043              		.global	levels
 1044              		.section	.bss.levels,"aw",%nobits
 1045              		.align	2
 1048              	levels:
 1049 0000 00000000 		.space	16
 1049      00000000 
 1049      00000000 
 1049      00000000 
 1050              		.global	osc12flt1
 1051              		.section	.bss.osc12flt1,"aw",%nobits
 1052              		.align	2
 1055              	osc12flt1:
 1056 0000 00000000 		.space	4
 1057              		.global	flt1
 1058              		.section	.bss.flt1,"aw",%nobits
 1059              		.align	2
 1062              	flt1:
 1063 0000 00000000 		.space	56
 1063      00000000 
 1063      00000000 
 1063      00000000 
 1063      00000000 
 1064              		.global	osc1
 1065              		.section	.bss.osc1,"aw",%nobits
 1066              		.align	2
 1069              	osc1:
 1070 0000 00000000 		.space	48
 1070      00000000 
 1070      00000000 
 1070      00000000 
 1070      00000000 
 1071              		.global	hw
 1072              		.section	.bss.hw,"aw",%nobits
 1073              		.align	2
 1076              	hw:
 1077 0000 00000000 		.space	60
 1077      00000000 
 1077      00000000 
 1077      00000000 
 1077      00000000 
 1078              		.section	.rodata._ZN5daisy4seedL3D14E,"a"
 1079              		.align	2
 1082              	_ZN5daisy4seedL3D14E:
 1083 0000 01       		.byte	1
 1084 0001 07       		.byte	7
 1085              		.section	.rodata._ZN5daisy4seedL3D13E,"a"
 1086              		.align	2
 1089              	_ZN5daisy4seedL3D13E:
 1090 0000 01       		.byte	1
 1091 0001 06       		.byte	6
 1092              		.text
 1093              	.Letext0:
 1094              		.file 13 "/Applications/ArmGNUToolchain/12.2.rel1/arm-none-eabi/arm-none-eabi/include/machine/_def
 1095              		.file 14 "/Applications/ArmGNUToolchain/12.2.rel1/arm-none-eabi/arm-none-eabi/include/sys/_stdint.
ARM GAS  /var/folders/5r/jcdnhfj535b7rff_ygc02qhr0000gn/T//cct0A4AP.s 			page 43


 1096              		.file 15 "/Applications/ArmGNUToolchain/12.2.rel1/arm-none-eabi/arm-none-eabi/include/stdint.h"
 1097              		.file 16 "/Applications/ArmGNUToolchain/12.2.rel1/arm-none-eabi/lib/gcc/arm-none-eabi/12.2.1/inclu
 1098              		.file 17 "/Applications/ArmGNUToolchain/12.2.rel1/arm-none-eabi/arm-none-eabi/include/c++/12.2.1/c
 1099              		.file 18 "/Applications/ArmGNUToolchain/12.2.rel1/arm-none-eabi/arm-none-eabi/include/c++/12.2.1/b
 1100              		.file 19 "/Applications/ArmGNUToolchain/12.2.rel1/arm-none-eabi/arm-none-eabi/include/c++/12.2.1/c
 1101              		.file 20 "/Applications/ArmGNUToolchain/12.2.rel1/arm-none-eabi/arm-none-eabi/include/c++/12.2.1/c
 1102              		.file 21 "/Applications/ArmGNUToolchain/12.2.rel1/arm-none-eabi/arm-none-eabi/include/c++/12.2.1/t
 1103              		.file 22 "/Applications/ArmGNUToolchain/12.2.rel1/arm-none-eabi/arm-none-eabi/include/c++/12.2.1/d
 1104              		.file 23 "/Applications/ArmGNUToolchain/12.2.rel1/arm-none-eabi/arm-none-eabi/include/c++/12.2.1/c
 1105              		.file 24 "/Applications/ArmGNUToolchain/12.2.rel1/arm-none-eabi/arm-none-eabi/include/c++/12.2.1/c
 1106              		.file 25 "/Applications/ArmGNUToolchain/12.2.rel1/arm-none-eabi/arm-none-eabi/include/c++/12.2.1/c
 1107              		.file 26 "/Applications/ArmGNUToolchain/12.2.rel1/arm-none-eabi/arm-none-eabi/include/c++/12.2.1/c
 1108              		.file 27 "/Applications/ArmGNUToolchain/12.2.rel1/arm-none-eabi/arm-none-eabi/include/c++/12.2.1/c
 1109              		.file 28 "/Applications/ArmGNUToolchain/12.2.rel1/arm-none-eabi/arm-none-eabi/include/c++/12.2.1/b
 1110              		.file 29 "/Applications/ArmGNUToolchain/12.2.rel1/arm-none-eabi/arm-none-eabi/include/c++/12.2.1/b
 1111              		.file 30 "/Applications/ArmGNUToolchain/12.2.rel1/arm-none-eabi/arm-none-eabi/include/sys/_types.h
 1112              		.file 31 "/Applications/ArmGNUToolchain/12.2.rel1/arm-none-eabi/arm-none-eabi/include/sys/reent.h"
 1113              		.file 32 "/Applications/ArmGNUToolchain/12.2.rel1/arm-none-eabi/arm-none-eabi/include/sys/lock.h"
 1114              		.file 33 "/Applications/ArmGNUToolchain/12.2.rel1/arm-none-eabi/arm-none-eabi/include/c++/12.2.1/b
 1115              		.file 34 "/Applications/ArmGNUToolchain/12.2.rel1/arm-none-eabi/arm-none-eabi/include/math.h"
 1116              		.file 35 "/Applications/ArmGNUToolchain/12.2.rel1/arm-none-eabi/arm-none-eabi/include/stdlib.h"
 1117              		.file 36 "/Applications/ArmGNUToolchain/12.2.rel1/arm-none-eabi/arm-none-eabi/include/c++/12.2.1/m
 1118              		.file 37 "/Applications/ArmGNUToolchain/12.2.rel1/arm-none-eabi/arm-none-eabi/include/c++/12.2.1/s
 1119              		.file 38 "/Applications/ArmGNUToolchain/12.2.rel1/arm-none-eabi/arm-none-eabi/include/c++/12.2.1/a
 1120              		.file 39 "/Users/ansel/Documents/DaisyExamples/libDaisy//src/per/sai.h"
 1121              		.file 40 "/Users/ansel/Documents/DaisyExamples/libDaisy//src/util/wav_format.h"
 1122              		.file 41 "/Users/ansel/Documents/DaisyExamples/libDaisy//src/dev/max11300.h"
 1123              		.file 42 "/Users/ansel/Documents/DaisyExamples/libDaisy//src/dev/sdram.h"
 1124              		.file 43 "/Applications/ArmGNUToolchain/12.2.rel1/arm-none-eabi/lib/gcc/arm-none-eabi/12.2.1/inclu
 1125              		.file 44 "/Applications/ArmGNUToolchain/12.2.rel1/arm-none-eabi/arm-none-eabi/include/stdio.h"
 1126              		.file 45 "/Applications/ArmGNUToolchain/12.2.rel1/arm-none-eabi/arm-none-eabi/include/string.h"
 1127              		.file 46 "/Users/ansel/Documents/DaisyExamples/DaisySP//Source/Control/adenv.h"
 1128              		.file 47 "/Users/ansel/Documents/DaisyExamples/DaisySP//Source/Utility/dsp.h"
 1129              		.file 48 "/Applications/ArmGNUToolchain/12.2.rel1/arm-none-eabi/arm-none-eabi/include/wchar.h"
 1130              		.file 49 "/Applications/ArmGNUToolchain/12.2.rel1/arm-none-eabi/arm-none-eabi/include/locale.h"
 1131              		.file 50 "/Users/ansel/Documents/DaisyExamples/libDaisy//src/dev/sr_595.h"
 1132              		.file 51 "<built-in>"
ARM GAS  /var/folders/5r/jcdnhfj535b7rff_ygc02qhr0000gn/T//cct0A4AP.s 			page 44

