ARM GAS  /var/folders/5r/jcdnhfj535b7rff_ygc02qhr0000gn/T//ccwk7XuB.s 			page 1


   1              		.cpu cortex-m7
   2              		.arch armv7e-m
   3              		.fpu fpv5-d16
   4              		.eabi_attribute 28, 1
   5              		.eabi_attribute 20, 1
   6              		.eabi_attribute 21, 1
   7              		.eabi_attribute 23, 3
   8              		.eabi_attribute 24, 1
   9              		.eabi_attribute 25, 1
  10              		.eabi_attribute 26, 1
  11              		.eabi_attribute 30, 2
  12              		.eabi_attribute 34, 1
  13              		.eabi_attribute 18, 4
  14              		.file	"big_knob.cpp"
  15              		.text
  16              	.Ltext0:
  17              		.cfi_sections	.debug_frame
  18              		.file 1 "big_knob.cpp"
  19              		.section	.text._ZN5daisy9DaisySeedD2Ev,"axG",%progbits,_ZN5daisy9DaisySeedD5Ev,comdat
  20              		.align	1
  21              		.p2align 2,,3
  22              		.weak	_ZN5daisy9DaisySeedD2Ev
  23              		.syntax unified
  24              		.thumb
  25              		.thumb_func
  27              	_ZN5daisy9DaisySeedD2Ev:
  28              	.LVL0:
  29              	.LFB2322:
  30              		.file 2 "/Users/ansel/Documents/DaisyExamples/libDaisy//src/daisy_seed.h"
   1:/Users/ansel/Documents/DaisyExamples/libDaisy//src/daisy_seed.h **** #pragma once
   2:/Users/ansel/Documents/DaisyExamples/libDaisy//src/daisy_seed.h **** #ifndef DSY_SEED_H
   3:/Users/ansel/Documents/DaisyExamples/libDaisy//src/daisy_seed.h **** #define DSY_SEED_H
   4:/Users/ansel/Documents/DaisyExamples/libDaisy//src/daisy_seed.h **** 
   5:/Users/ansel/Documents/DaisyExamples/libDaisy//src/daisy_seed.h **** #include "daisy.h"
   6:/Users/ansel/Documents/DaisyExamples/libDaisy//src/daisy_seed.h **** 
   7:/Users/ansel/Documents/DaisyExamples/libDaisy//src/daisy_seed.h **** //Uncomment this out if you're still using the rev2 hardware
   8:/Users/ansel/Documents/DaisyExamples/libDaisy//src/daisy_seed.h **** //#define SEED_REV2
   9:/Users/ansel/Documents/DaisyExamples/libDaisy//src/daisy_seed.h **** 
  10:/Users/ansel/Documents/DaisyExamples/libDaisy//src/daisy_seed.h **** namespace daisy
  11:/Users/ansel/Documents/DaisyExamples/libDaisy//src/daisy_seed.h **** {
  12:/Users/ansel/Documents/DaisyExamples/libDaisy//src/daisy_seed.h **** /**
  13:/Users/ansel/Documents/DaisyExamples/libDaisy//src/daisy_seed.h ****    @brief This is the higher-level interface for the Daisy board. \n 
  14:/Users/ansel/Documents/DaisyExamples/libDaisy//src/daisy_seed.h ****     All basic peripheral configuration/initialization is setup here. \n
  15:/Users/ansel/Documents/DaisyExamples/libDaisy//src/daisy_seed.h **** 
  16:/Users/ansel/Documents/DaisyExamples/libDaisy//src/daisy_seed.h ****    @ingroup boards
  17:/Users/ansel/Documents/DaisyExamples/libDaisy//src/daisy_seed.h **** */
  18:/Users/ansel/Documents/DaisyExamples/libDaisy//src/daisy_seed.h **** class DaisySeed
  19:/Users/ansel/Documents/DaisyExamples/libDaisy//src/daisy_seed.h **** {
  20:/Users/ansel/Documents/DaisyExamples/libDaisy//src/daisy_seed.h ****   public:
  21:/Users/ansel/Documents/DaisyExamples/libDaisy//src/daisy_seed.h ****     DaisySeed() {}
  22:/Users/ansel/Documents/DaisyExamples/libDaisy//src/daisy_seed.h ****     ~DaisySeed() {}
  31              		.loc 2 22 5 view -0
  32              		.cfi_startproc
  33              		@ args = 0, pretend = 0, frame = 0
  34              		@ frame_needed = 0, uses_anonymous_args = 0
  35              		@ link register save eliminated.
  36              	.LBB287:
ARM GAS  /var/folders/5r/jcdnhfj535b7rff_ygc02qhr0000gn/T//ccwk7XuB.s 			page 2


  37              	.LBI287:
  38              		.file 3 "/Users/ansel/Documents/DaisyExamples/libDaisy//src/sys/system.h"
   1:/Users/ansel/Documents/DaisyExamples/libDaisy//src/sys/system.h **** #ifndef DSY_SYSTEM_H
   2:/Users/ansel/Documents/DaisyExamples/libDaisy//src/sys/system.h **** #define DSY_SYSTEM_H
   3:/Users/ansel/Documents/DaisyExamples/libDaisy//src/sys/system.h **** 
   4:/Users/ansel/Documents/DaisyExamples/libDaisy//src/sys/system.h **** #ifndef UNIT_TEST // for unit tests, a dummy implementation is provided below
   5:/Users/ansel/Documents/DaisyExamples/libDaisy//src/sys/system.h **** 
   6:/Users/ansel/Documents/DaisyExamples/libDaisy//src/sys/system.h **** #include <cstdint>
   7:/Users/ansel/Documents/DaisyExamples/libDaisy//src/sys/system.h **** #include "per/tim.h"
   8:/Users/ansel/Documents/DaisyExamples/libDaisy//src/sys/system.h **** 
   9:/Users/ansel/Documents/DaisyExamples/libDaisy//src/sys/system.h **** namespace daisy
  10:/Users/ansel/Documents/DaisyExamples/libDaisy//src/sys/system.h **** {
  11:/Users/ansel/Documents/DaisyExamples/libDaisy//src/sys/system.h **** /** A handle for interacting with the Core System. 
  12:/Users/ansel/Documents/DaisyExamples/libDaisy//src/sys/system.h ****  ** This includes the Clock tree, MPU, global DMA initialization,
  13:/Users/ansel/Documents/DaisyExamples/libDaisy//src/sys/system.h ****  ** cache handling, and any other necessary global initiailzation
  14:/Users/ansel/Documents/DaisyExamples/libDaisy//src/sys/system.h ****  **
  15:/Users/ansel/Documents/DaisyExamples/libDaisy//src/sys/system.h ****  ** @author shensley
  16:/Users/ansel/Documents/DaisyExamples/libDaisy//src/sys/system.h ****  ** @ingroup system
  17:/Users/ansel/Documents/DaisyExamples/libDaisy//src/sys/system.h ****  */
  18:/Users/ansel/Documents/DaisyExamples/libDaisy//src/sys/system.h **** class System
  19:/Users/ansel/Documents/DaisyExamples/libDaisy//src/sys/system.h **** {
  20:/Users/ansel/Documents/DaisyExamples/libDaisy//src/sys/system.h ****   public:
  21:/Users/ansel/Documents/DaisyExamples/libDaisy//src/sys/system.h ****     /** Contains settings for initializing the System */
  22:/Users/ansel/Documents/DaisyExamples/libDaisy//src/sys/system.h ****     struct Config
  23:/Users/ansel/Documents/DaisyExamples/libDaisy//src/sys/system.h ****     {
  24:/Users/ansel/Documents/DaisyExamples/libDaisy//src/sys/system.h ****         /** Specifies the system clock frequency that feeds APB/AHB clocks, etc. */
  25:/Users/ansel/Documents/DaisyExamples/libDaisy//src/sys/system.h ****         enum class SysClkFreq
  26:/Users/ansel/Documents/DaisyExamples/libDaisy//src/sys/system.h ****         {
  27:/Users/ansel/Documents/DaisyExamples/libDaisy//src/sys/system.h ****             FREQ_400MHZ,
  28:/Users/ansel/Documents/DaisyExamples/libDaisy//src/sys/system.h ****             FREQ_480MHZ,
  29:/Users/ansel/Documents/DaisyExamples/libDaisy//src/sys/system.h ****         };
  30:/Users/ansel/Documents/DaisyExamples/libDaisy//src/sys/system.h **** 
  31:/Users/ansel/Documents/DaisyExamples/libDaisy//src/sys/system.h ****         /** Method to call on the struct to set to defaults
  32:/Users/ansel/Documents/DaisyExamples/libDaisy//src/sys/system.h ****          ** CPU Freq set to 400MHz
  33:/Users/ansel/Documents/DaisyExamples/libDaisy//src/sys/system.h ****          ** Cache Enabled 
  34:/Users/ansel/Documents/DaisyExamples/libDaisy//src/sys/system.h ****          ** */
  35:/Users/ansel/Documents/DaisyExamples/libDaisy//src/sys/system.h ****         void Defaults()
  36:/Users/ansel/Documents/DaisyExamples/libDaisy//src/sys/system.h ****         {
  37:/Users/ansel/Documents/DaisyExamples/libDaisy//src/sys/system.h ****             cpu_freq    = SysClkFreq::FREQ_400MHZ;
  38:/Users/ansel/Documents/DaisyExamples/libDaisy//src/sys/system.h ****             use_dcache  = true;
  39:/Users/ansel/Documents/DaisyExamples/libDaisy//src/sys/system.h ****             use_icache  = true;
  40:/Users/ansel/Documents/DaisyExamples/libDaisy//src/sys/system.h ****             skip_clocks = false;
  41:/Users/ansel/Documents/DaisyExamples/libDaisy//src/sys/system.h ****         }
  42:/Users/ansel/Documents/DaisyExamples/libDaisy//src/sys/system.h **** 
  43:/Users/ansel/Documents/DaisyExamples/libDaisy//src/sys/system.h ****         /** Method to call on the struct to set to boost mode:
  44:/Users/ansel/Documents/DaisyExamples/libDaisy//src/sys/system.h ****          ** CPU Freq set to 480MHz
  45:/Users/ansel/Documents/DaisyExamples/libDaisy//src/sys/system.h ****          ** Cache Enabled 
  46:/Users/ansel/Documents/DaisyExamples/libDaisy//src/sys/system.h ****          ** */
  47:/Users/ansel/Documents/DaisyExamples/libDaisy//src/sys/system.h ****         void Boost()
  48:/Users/ansel/Documents/DaisyExamples/libDaisy//src/sys/system.h ****         {
  49:/Users/ansel/Documents/DaisyExamples/libDaisy//src/sys/system.h ****             cpu_freq    = SysClkFreq::FREQ_480MHZ;
  50:/Users/ansel/Documents/DaisyExamples/libDaisy//src/sys/system.h ****             use_dcache  = true;
  51:/Users/ansel/Documents/DaisyExamples/libDaisy//src/sys/system.h ****             use_icache  = true;
  52:/Users/ansel/Documents/DaisyExamples/libDaisy//src/sys/system.h ****             skip_clocks = false;
  53:/Users/ansel/Documents/DaisyExamples/libDaisy//src/sys/system.h ****         }
  54:/Users/ansel/Documents/DaisyExamples/libDaisy//src/sys/system.h **** 
  55:/Users/ansel/Documents/DaisyExamples/libDaisy//src/sys/system.h ****         SysClkFreq cpu_freq;
ARM GAS  /var/folders/5r/jcdnhfj535b7rff_ygc02qhr0000gn/T//ccwk7XuB.s 			page 3


  56:/Users/ansel/Documents/DaisyExamples/libDaisy//src/sys/system.h ****         bool       use_dcache;
  57:/Users/ansel/Documents/DaisyExamples/libDaisy//src/sys/system.h ****         bool       use_icache;
  58:/Users/ansel/Documents/DaisyExamples/libDaisy//src/sys/system.h ****         bool       skip_clocks;
  59:/Users/ansel/Documents/DaisyExamples/libDaisy//src/sys/system.h ****     };
  60:/Users/ansel/Documents/DaisyExamples/libDaisy//src/sys/system.h **** 
  61:/Users/ansel/Documents/DaisyExamples/libDaisy//src/sys/system.h ****     /** Describes the different regions of memory available to the Daisy
  62:/Users/ansel/Documents/DaisyExamples/libDaisy//src/sys/system.h ****      * 
  63:/Users/ansel/Documents/DaisyExamples/libDaisy//src/sys/system.h ****      */
  64:/Users/ansel/Documents/DaisyExamples/libDaisy//src/sys/system.h ****     enum MemoryRegion
  65:/Users/ansel/Documents/DaisyExamples/libDaisy//src/sys/system.h ****     {
  66:/Users/ansel/Documents/DaisyExamples/libDaisy//src/sys/system.h ****         INTERNAL_FLASH = 0,
  67:/Users/ansel/Documents/DaisyExamples/libDaisy//src/sys/system.h ****         ITCMRAM,
  68:/Users/ansel/Documents/DaisyExamples/libDaisy//src/sys/system.h ****         DTCMRAM,
  69:/Users/ansel/Documents/DaisyExamples/libDaisy//src/sys/system.h ****         SRAM_D1,
  70:/Users/ansel/Documents/DaisyExamples/libDaisy//src/sys/system.h ****         SRAM_D2,
  71:/Users/ansel/Documents/DaisyExamples/libDaisy//src/sys/system.h ****         SRAM_D3,
  72:/Users/ansel/Documents/DaisyExamples/libDaisy//src/sys/system.h ****         SDRAM,
  73:/Users/ansel/Documents/DaisyExamples/libDaisy//src/sys/system.h ****         QSPI,
  74:/Users/ansel/Documents/DaisyExamples/libDaisy//src/sys/system.h ****         INVALID_ADDRESS,
  75:/Users/ansel/Documents/DaisyExamples/libDaisy//src/sys/system.h ****     };
  76:/Users/ansel/Documents/DaisyExamples/libDaisy//src/sys/system.h **** 
  77:/Users/ansel/Documents/DaisyExamples/libDaisy//src/sys/system.h ****     System() {}
  78:/Users/ansel/Documents/DaisyExamples/libDaisy//src/sys/system.h ****     ~System() {}
  39              		.loc 3 78 5 view .LVU1
  40              		.loc 3 78 5 is_stmt 0 view .LVU2
  41              	.LBE287:
  42              	.LBB288:
  43              	.LBI288:
  44              		.file 4 "/Users/ansel/Documents/DaisyExamples/libDaisy//src/hid/usb.h"
   1:/Users/ansel/Documents/DaisyExamples/libDaisy//src/hid/usb.h **** #pragma once
   2:/Users/ansel/Documents/DaisyExamples/libDaisy//src/hid/usb.h **** #ifndef DSY_HID_USB_H
   3:/Users/ansel/Documents/DaisyExamples/libDaisy//src/hid/usb.h **** #define DSY_HID_USB_H
   4:/Users/ansel/Documents/DaisyExamples/libDaisy//src/hid/usb.h **** #include <stdint.h>
   5:/Users/ansel/Documents/DaisyExamples/libDaisy//src/hid/usb.h **** #include <stdlib.h>
   6:/Users/ansel/Documents/DaisyExamples/libDaisy//src/hid/usb.h **** 
   7:/Users/ansel/Documents/DaisyExamples/libDaisy//src/hid/usb.h **** namespace daisy
   8:/Users/ansel/Documents/DaisyExamples/libDaisy//src/hid/usb.h **** /** @addtogroup human_interface
   9:/Users/ansel/Documents/DaisyExamples/libDaisy//src/hid/usb.h ****     @{
  10:/Users/ansel/Documents/DaisyExamples/libDaisy//src/hid/usb.h **** */
  11:/Users/ansel/Documents/DaisyExamples/libDaisy//src/hid/usb.h **** 
  12:/Users/ansel/Documents/DaisyExamples/libDaisy//src/hid/usb.h **** {
  13:/Users/ansel/Documents/DaisyExamples/libDaisy//src/hid/usb.h **** /** 
  14:/Users/ansel/Documents/DaisyExamples/libDaisy//src/hid/usb.h ****     @brief Interface for initializing and using the USB Peripherals on the daisy
  15:/Users/ansel/Documents/DaisyExamples/libDaisy//src/hid/usb.h ****     @author Stephen Hensley
  16:/Users/ansel/Documents/DaisyExamples/libDaisy//src/hid/usb.h ****     @date December 2019
  17:/Users/ansel/Documents/DaisyExamples/libDaisy//src/hid/usb.h **** */
  18:/Users/ansel/Documents/DaisyExamples/libDaisy//src/hid/usb.h **** class UsbHandle
  19:/Users/ansel/Documents/DaisyExamples/libDaisy//src/hid/usb.h **** {
  20:/Users/ansel/Documents/DaisyExamples/libDaisy//src/hid/usb.h ****   public:
  21:/Users/ansel/Documents/DaisyExamples/libDaisy//src/hid/usb.h ****     /** Return values for USBHandle Functions */
  22:/Users/ansel/Documents/DaisyExamples/libDaisy//src/hid/usb.h ****     enum class Result
  23:/Users/ansel/Documents/DaisyExamples/libDaisy//src/hid/usb.h ****     {
  24:/Users/ansel/Documents/DaisyExamples/libDaisy//src/hid/usb.h ****         OK,
  25:/Users/ansel/Documents/DaisyExamples/libDaisy//src/hid/usb.h ****         ERR,
  26:/Users/ansel/Documents/DaisyExamples/libDaisy//src/hid/usb.h ****     };
  27:/Users/ansel/Documents/DaisyExamples/libDaisy//src/hid/usb.h **** 
  28:/Users/ansel/Documents/DaisyExamples/libDaisy//src/hid/usb.h ****     /** Specified which of the two USB Peripherals to initialize. */
ARM GAS  /var/folders/5r/jcdnhfj535b7rff_ygc02qhr0000gn/T//ccwk7XuB.s 			page 4


  29:/Users/ansel/Documents/DaisyExamples/libDaisy//src/hid/usb.h ****     enum UsbPeriph
  30:/Users/ansel/Documents/DaisyExamples/libDaisy//src/hid/usb.h ****     {
  31:/Users/ansel/Documents/DaisyExamples/libDaisy//src/hid/usb.h ****         FS_INTERNAL, /**< Internal pin */
  32:/Users/ansel/Documents/DaisyExamples/libDaisy//src/hid/usb.h ****         FS_EXTERNAL, /**< FS External D+ pin is Pin 38 (GPIO32). FS External D- pin is Pin 37 (GPIO
  33:/Users/ansel/Documents/DaisyExamples/libDaisy//src/hid/usb.h ****         FS_BOTH,     /**< Both */
  34:/Users/ansel/Documents/DaisyExamples/libDaisy//src/hid/usb.h ****     };
  35:/Users/ansel/Documents/DaisyExamples/libDaisy//src/hid/usb.h **** 
  36:/Users/ansel/Documents/DaisyExamples/libDaisy//src/hid/usb.h **** 
  37:/Users/ansel/Documents/DaisyExamples/libDaisy//src/hid/usb.h ****     /** Function called upon reception of a buffer */
  38:/Users/ansel/Documents/DaisyExamples/libDaisy//src/hid/usb.h ****     typedef void (*ReceiveCallback)(uint8_t* buff, uint32_t* len);
  39:/Users/ansel/Documents/DaisyExamples/libDaisy//src/hid/usb.h **** 
  40:/Users/ansel/Documents/DaisyExamples/libDaisy//src/hid/usb.h ****     UsbHandle() {}
  41:/Users/ansel/Documents/DaisyExamples/libDaisy//src/hid/usb.h **** 
  42:/Users/ansel/Documents/DaisyExamples/libDaisy//src/hid/usb.h ****     ~UsbHandle() {}
  45              		.loc 4 42 5 is_stmt 1 view .LVU3
  46              		.loc 4 42 5 is_stmt 0 view .LVU4
  47              	.LBE288:
  48              	.LBB289:
  49              	.LBI289:
  50              		.file 5 "/Users/ansel/Documents/DaisyExamples/libDaisy//src/per/adc.h"
   1:/Users/ansel/Documents/DaisyExamples/libDaisy//src/per/adc.h **** #pragma once
   2:/Users/ansel/Documents/DaisyExamples/libDaisy//src/per/adc.h **** #ifndef DSY_ADC_H
   3:/Users/ansel/Documents/DaisyExamples/libDaisy//src/per/adc.h **** #define DSY_ADC_H /**< Macro */
   4:/Users/ansel/Documents/DaisyExamples/libDaisy//src/per/adc.h **** #include <stdint.h>
   5:/Users/ansel/Documents/DaisyExamples/libDaisy//src/per/adc.h **** #include <stdlib.h>
   6:/Users/ansel/Documents/DaisyExamples/libDaisy//src/per/adc.h **** #include "daisy_core.h"
   7:/Users/ansel/Documents/DaisyExamples/libDaisy//src/per/adc.h **** #include "per/gpio.h"
   8:/Users/ansel/Documents/DaisyExamples/libDaisy//src/per/adc.h **** 
   9:/Users/ansel/Documents/DaisyExamples/libDaisy//src/per/adc.h **** #define DSY_ADC_MAX_CHANNELS 16 /**< Maximum number of ADC channels */
  10:/Users/ansel/Documents/DaisyExamples/libDaisy//src/per/adc.h **** 
  11:/Users/ansel/Documents/DaisyExamples/libDaisy//src/per/adc.h **** namespace daisy
  12:/Users/ansel/Documents/DaisyExamples/libDaisy//src/per/adc.h **** {
  13:/Users/ansel/Documents/DaisyExamples/libDaisy//src/per/adc.h **** /** @addtogroup per_analog
  14:/Users/ansel/Documents/DaisyExamples/libDaisy//src/per/adc.h ****     @{
  15:/Users/ansel/Documents/DaisyExamples/libDaisy//src/per/adc.h **** */
  16:/Users/ansel/Documents/DaisyExamples/libDaisy//src/per/adc.h **** 
  17:/Users/ansel/Documents/DaisyExamples/libDaisy//src/per/adc.h **** /* While there may not be many configuration options here,
  18:/Users/ansel/Documents/DaisyExamples/libDaisy//src/per/adc.h **** using a struct like this allows us to add more configuration
  19:/Users/ansel/Documents/DaisyExamples/libDaisy//src/per/adc.h **** later without breaking existing functionality.
  20:/Users/ansel/Documents/DaisyExamples/libDaisy//src/per/adc.h **** */
  21:/Users/ansel/Documents/DaisyExamples/libDaisy//src/per/adc.h **** 
  22:/Users/ansel/Documents/DaisyExamples/libDaisy//src/per/adc.h **** /** @brief   Configuration Structure for an ADC Channel 
  23:/Users/ansel/Documents/DaisyExamples/libDaisy//src/per/adc.h ****  *  @details This can be used to configure a a single input, 
  24:/Users/ansel/Documents/DaisyExamples/libDaisy//src/per/adc.h ****  *           or a multiplexed input, allowing up to 8 inputs on 
  25:/Users/ansel/Documents/DaisyExamples/libDaisy//src/per/adc.h ****  *           one channel.
  26:/Users/ansel/Documents/DaisyExamples/libDaisy//src/per/adc.h ****  *  @note    Sharing data lines to multiple muxes _is_ possible, but
  27:/Users/ansel/Documents/DaisyExamples/libDaisy//src/per/adc.h ****  *           each channel sharing data lines must be set to the maximum
  28:/Users/ansel/Documents/DaisyExamples/libDaisy//src/per/adc.h ****  *           number of channels, even if some multiplexers have fewer
  29:/Users/ansel/Documents/DaisyExamples/libDaisy//src/per/adc.h ****  *           inputs connected.
  30:/Users/ansel/Documents/DaisyExamples/libDaisy//src/per/adc.h **** */
  31:/Users/ansel/Documents/DaisyExamples/libDaisy//src/per/adc.h **** struct AdcChannelConfig
  32:/Users/ansel/Documents/DaisyExamples/libDaisy//src/per/adc.h **** {
  33:/Users/ansel/Documents/DaisyExamples/libDaisy//src/per/adc.h ****     /** Which pin to use for multiplexing */
  34:/Users/ansel/Documents/DaisyExamples/libDaisy//src/per/adc.h ****     enum MuxPin
  35:/Users/ansel/Documents/DaisyExamples/libDaisy//src/per/adc.h ****     {
  36:/Users/ansel/Documents/DaisyExamples/libDaisy//src/per/adc.h ****         MUX_SEL_0,    /**< & */
  37:/Users/ansel/Documents/DaisyExamples/libDaisy//src/per/adc.h ****         MUX_SEL_1,    /**< & */
ARM GAS  /var/folders/5r/jcdnhfj535b7rff_ygc02qhr0000gn/T//ccwk7XuB.s 			page 5


  38:/Users/ansel/Documents/DaisyExamples/libDaisy//src/per/adc.h ****         MUX_SEL_2,    /**< & */
  39:/Users/ansel/Documents/DaisyExamples/libDaisy//src/per/adc.h ****         MUX_SEL_LAST, /**< & */
  40:/Users/ansel/Documents/DaisyExamples/libDaisy//src/per/adc.h ****     };
  41:/Users/ansel/Documents/DaisyExamples/libDaisy//src/per/adc.h **** 
  42:/Users/ansel/Documents/DaisyExamples/libDaisy//src/per/adc.h ****     /** Initializes a single ADC pin as an ADC. 
  43:/Users/ansel/Documents/DaisyExamples/libDaisy//src/per/adc.h ****     \param pin Pin to init.
  44:/Users/ansel/Documents/DaisyExamples/libDaisy//src/per/adc.h ****      */
  45:/Users/ansel/Documents/DaisyExamples/libDaisy//src/per/adc.h ****     void InitSingle(dsy_gpio_pin pin);
  46:/Users/ansel/Documents/DaisyExamples/libDaisy//src/per/adc.h **** 
  47:/Users/ansel/Documents/DaisyExamples/libDaisy//src/per/adc.h ****     /** 
  48:/Users/ansel/Documents/DaisyExamples/libDaisy//src/per/adc.h ****     Initializes a single ADC pin as a Multiplexed ADC.
  49:/Users/ansel/Documents/DaisyExamples/libDaisy//src/per/adc.h ****     Requires a CD405X Multiplexer connected to the pin.
  50:/Users/ansel/Documents/DaisyExamples/libDaisy//src/per/adc.h ****     You only need to supply the mux pins that are required,
  51:/Users/ansel/Documents/DaisyExamples/libDaisy//src/per/adc.h ****     e.g. a 4052 mux would only require mux_0 and mux_1.
  52:/Users/ansel/Documents/DaisyExamples/libDaisy//src/per/adc.h ****     Internal Callbacks handle the pin addressing.
  53:/Users/ansel/Documents/DaisyExamples/libDaisy//src/per/adc.h ****     \param mux_channels must be 1-8
  54:/Users/ansel/Documents/DaisyExamples/libDaisy//src/per/adc.h ****     \param mux_0 First mux pin
  55:/Users/ansel/Documents/DaisyExamples/libDaisy//src/per/adc.h ****     \param mux_1 Second mux pin
  56:/Users/ansel/Documents/DaisyExamples/libDaisy//src/per/adc.h ****     \param mux_2 Third mux pin
  57:/Users/ansel/Documents/DaisyExamples/libDaisy//src/per/adc.h ****     \param adc_pin &
  58:/Users/ansel/Documents/DaisyExamples/libDaisy//src/per/adc.h ****     */
  59:/Users/ansel/Documents/DaisyExamples/libDaisy//src/per/adc.h ****     void InitMux(dsy_gpio_pin adc_pin,
  60:/Users/ansel/Documents/DaisyExamples/libDaisy//src/per/adc.h ****                  size_t       mux_channels,
  61:/Users/ansel/Documents/DaisyExamples/libDaisy//src/per/adc.h ****                  dsy_gpio_pin mux_0,
  62:/Users/ansel/Documents/DaisyExamples/libDaisy//src/per/adc.h ****                  dsy_gpio_pin mux_1 = {DSY_GPIOX, 0},
  63:/Users/ansel/Documents/DaisyExamples/libDaisy//src/per/adc.h ****                  dsy_gpio_pin mux_2 = {DSY_GPIOX, 0});
  64:/Users/ansel/Documents/DaisyExamples/libDaisy//src/per/adc.h **** 
  65:/Users/ansel/Documents/DaisyExamples/libDaisy//src/per/adc.h ****     dsy_gpio pin_;                   /**< & */
  66:/Users/ansel/Documents/DaisyExamples/libDaisy//src/per/adc.h ****     dsy_gpio mux_pin_[MUX_SEL_LAST]; /**< & */
  67:/Users/ansel/Documents/DaisyExamples/libDaisy//src/per/adc.h ****     uint8_t  mux_channels_;          /**< & */
  68:/Users/ansel/Documents/DaisyExamples/libDaisy//src/per/adc.h **** };
  69:/Users/ansel/Documents/DaisyExamples/libDaisy//src/per/adc.h **** 
  70:/Users/ansel/Documents/DaisyExamples/libDaisy//src/per/adc.h **** /**
  71:/Users/ansel/Documents/DaisyExamples/libDaisy//src/per/adc.h ****    @brief Handler for analog to digital conversion
  72:/Users/ansel/Documents/DaisyExamples/libDaisy//src/per/adc.h **** */
  73:/Users/ansel/Documents/DaisyExamples/libDaisy//src/per/adc.h **** class AdcHandle
  74:/Users/ansel/Documents/DaisyExamples/libDaisy//src/per/adc.h **** {
  75:/Users/ansel/Documents/DaisyExamples/libDaisy//src/per/adc.h ****   public:
  76:/Users/ansel/Documents/DaisyExamples/libDaisy//src/per/adc.h ****     /** Supported oversampling amounts */
  77:/Users/ansel/Documents/DaisyExamples/libDaisy//src/per/adc.h ****     enum OverSampling
  78:/Users/ansel/Documents/DaisyExamples/libDaisy//src/per/adc.h ****     {
  79:/Users/ansel/Documents/DaisyExamples/libDaisy//src/per/adc.h ****         OVS_NONE, /**< & */
  80:/Users/ansel/Documents/DaisyExamples/libDaisy//src/per/adc.h ****         OVS_4,    /**< & */
  81:/Users/ansel/Documents/DaisyExamples/libDaisy//src/per/adc.h ****         OVS_8,    /**< & */
  82:/Users/ansel/Documents/DaisyExamples/libDaisy//src/per/adc.h ****         OVS_16,   /**< & */
  83:/Users/ansel/Documents/DaisyExamples/libDaisy//src/per/adc.h ****         OVS_32,   /**< & */
  84:/Users/ansel/Documents/DaisyExamples/libDaisy//src/per/adc.h ****         OVS_64,   /**< & */
  85:/Users/ansel/Documents/DaisyExamples/libDaisy//src/per/adc.h ****         OVS_128,  /**< & */
  86:/Users/ansel/Documents/DaisyExamples/libDaisy//src/per/adc.h ****         OVS_256,  /**< & */
  87:/Users/ansel/Documents/DaisyExamples/libDaisy//src/per/adc.h ****         OVS_512,  /**< & */
  88:/Users/ansel/Documents/DaisyExamples/libDaisy//src/per/adc.h ****         OVS_1024, /**< & */
  89:/Users/ansel/Documents/DaisyExamples/libDaisy//src/per/adc.h ****         OVS_LAST, /**< & */
  90:/Users/ansel/Documents/DaisyExamples/libDaisy//src/per/adc.h ****     };
  91:/Users/ansel/Documents/DaisyExamples/libDaisy//src/per/adc.h **** 
  92:/Users/ansel/Documents/DaisyExamples/libDaisy//src/per/adc.h ****     AdcHandle() {}
  93:/Users/ansel/Documents/DaisyExamples/libDaisy//src/per/adc.h ****     ~AdcHandle() {}
  51              		.loc 5 93 5 is_stmt 1 view .LVU5
ARM GAS  /var/folders/5r/jcdnhfj535b7rff_ygc02qhr0000gn/T//ccwk7XuB.s 			page 6


  52              		.loc 5 93 5 is_stmt 0 view .LVU6
  53              	.LBE289:
  54              	.LBB290:
  55              	.LBI290:
  56              		.file 6 "/Users/ansel/Documents/DaisyExamples/libDaisy//src/hid/audio.h"
   1:/Users/ansel/Documents/DaisyExamples/libDaisy//src/hid/audio.h **** #ifndef DSY_AUDIO_H
   2:/Users/ansel/Documents/DaisyExamples/libDaisy//src/hid/audio.h **** #define DSY_AUDIO_H /**< & */
   3:/Users/ansel/Documents/DaisyExamples/libDaisy//src/hid/audio.h **** 
   4:/Users/ansel/Documents/DaisyExamples/libDaisy//src/hid/audio.h **** #include "per/sai.h"
   5:/Users/ansel/Documents/DaisyExamples/libDaisy//src/hid/audio.h **** 
   6:/Users/ansel/Documents/DaisyExamples/libDaisy//src/hid/audio.h **** namespace daisy
   7:/Users/ansel/Documents/DaisyExamples/libDaisy//src/hid/audio.h **** {
   8:/Users/ansel/Documents/DaisyExamples/libDaisy//src/hid/audio.h **** /** @brief Audio Engine Handle
   9:/Users/ansel/Documents/DaisyExamples/libDaisy//src/hid/audio.h ****  *  @ingroup audio 
  10:/Users/ansel/Documents/DaisyExamples/libDaisy//src/hid/audio.h ****  *  @details This class allows for higher level access to an audio engine.
  11:/Users/ansel/Documents/DaisyExamples/libDaisy//src/hid/audio.h ****  *           If you're using a SOM like the DaisySeed or DaisyPatchSM (or any 
  12:/Users/ansel/Documents/DaisyExamples/libDaisy//src/hid/audio.h ****  *            board that includes one of those objects) then the intialization
  13:/Users/ansel/Documents/DaisyExamples/libDaisy//src/hid/audio.h ****  *            is already taken  care of.
  14:/Users/ansel/Documents/DaisyExamples/libDaisy//src/hid/audio.h ****  *           If you're setting up your own custom hardware, or need to make changes
  15:/Users/ansel/Documents/DaisyExamples/libDaisy//src/hid/audio.h ****  *           you will have to take the following steps:
  16:/Users/ansel/Documents/DaisyExamples/libDaisy//src/hid/audio.h ****  *             1. Create and Initialize an SaiHandle or two depending on your requirements
  17:/Users/ansel/Documents/DaisyExamples/libDaisy//src/hid/audio.h ****  *             2. Initialize the Audio Handle with the desired settings and the Initialized SaiHand
  18:/Users/ansel/Documents/DaisyExamples/libDaisy//src/hid/audio.h ****  *             3. If the connected codec requires special configuration or initialization, do so
  19:/Users/ansel/Documents/DaisyExamples/libDaisy//src/hid/audio.h ****  *             4. Write a callback method using either the AudioCallback or the InterleavingAudioCa
  20:/Users/ansel/Documents/DaisyExamples/libDaisy//src/hid/audio.h ****  *             5. Start the Audio using one of the StartAudio function
  21:/Users/ansel/Documents/DaisyExamples/libDaisy//src/hid/audio.h ****  */
  22:/Users/ansel/Documents/DaisyExamples/libDaisy//src/hid/audio.h **** class AudioHandle
  23:/Users/ansel/Documents/DaisyExamples/libDaisy//src/hid/audio.h **** {
  24:/Users/ansel/Documents/DaisyExamples/libDaisy//src/hid/audio.h ****   public:
  25:/Users/ansel/Documents/DaisyExamples/libDaisy//src/hid/audio.h ****     /** Manually configurable details about the Audio Engine */
  26:/Users/ansel/Documents/DaisyExamples/libDaisy//src/hid/audio.h ****     /** TODO: Figure out how to get samplerate in here. */
  27:/Users/ansel/Documents/DaisyExamples/libDaisy//src/hid/audio.h ****     struct Config
  28:/Users/ansel/Documents/DaisyExamples/libDaisy//src/hid/audio.h ****     {
  29:/Users/ansel/Documents/DaisyExamples/libDaisy//src/hid/audio.h ****         /** number of samples to process per callback */
  30:/Users/ansel/Documents/DaisyExamples/libDaisy//src/hid/audio.h ****         size_t blocksize;
  31:/Users/ansel/Documents/DaisyExamples/libDaisy//src/hid/audio.h **** 
  32:/Users/ansel/Documents/DaisyExamples/libDaisy//src/hid/audio.h ****         /**< Sample rate of audio */
  33:/Users/ansel/Documents/DaisyExamples/libDaisy//src/hid/audio.h ****         SaiHandle::Config::SampleRate samplerate;
  34:/Users/ansel/Documents/DaisyExamples/libDaisy//src/hid/audio.h **** 
  35:/Users/ansel/Documents/DaisyExamples/libDaisy//src/hid/audio.h ****         /** factor for adjustment before and after callback for hardware that may have extra headro
  36:/Users/ansel/Documents/DaisyExamples/libDaisy//src/hid/audio.h ****         float postgain;
  37:/Users/ansel/Documents/DaisyExamples/libDaisy//src/hid/audio.h **** 
  38:/Users/ansel/Documents/DaisyExamples/libDaisy//src/hid/audio.h ****         /** factor for additional one-sided compensation to audio path for hardware that may
  39:/Users/ansel/Documents/DaisyExamples/libDaisy//src/hid/audio.h ****          *  have unequal input/output ranges
  40:/Users/ansel/Documents/DaisyExamples/libDaisy//src/hid/audio.h ****          */
  41:/Users/ansel/Documents/DaisyExamples/libDaisy//src/hid/audio.h ****         float output_compensation;
  42:/Users/ansel/Documents/DaisyExamples/libDaisy//src/hid/audio.h **** 
  43:/Users/ansel/Documents/DaisyExamples/libDaisy//src/hid/audio.h ****         /** Sets default values for config struct */
  44:/Users/ansel/Documents/DaisyExamples/libDaisy//src/hid/audio.h ****         Config()
  45:/Users/ansel/Documents/DaisyExamples/libDaisy//src/hid/audio.h ****         : blocksize(48),
  46:/Users/ansel/Documents/DaisyExamples/libDaisy//src/hid/audio.h ****           samplerate(SaiHandle::Config::SampleRate::SAI_48KHZ),
  47:/Users/ansel/Documents/DaisyExamples/libDaisy//src/hid/audio.h ****           postgain(1.f),
  48:/Users/ansel/Documents/DaisyExamples/libDaisy//src/hid/audio.h ****           output_compensation(1.f)
  49:/Users/ansel/Documents/DaisyExamples/libDaisy//src/hid/audio.h ****         {
  50:/Users/ansel/Documents/DaisyExamples/libDaisy//src/hid/audio.h ****         }
  51:/Users/ansel/Documents/DaisyExamples/libDaisy//src/hid/audio.h ****     };
  52:/Users/ansel/Documents/DaisyExamples/libDaisy//src/hid/audio.h **** 
ARM GAS  /var/folders/5r/jcdnhfj535b7rff_ygc02qhr0000gn/T//ccwk7XuB.s 			page 7


  53:/Users/ansel/Documents/DaisyExamples/libDaisy//src/hid/audio.h ****     enum class Result
  54:/Users/ansel/Documents/DaisyExamples/libDaisy//src/hid/audio.h ****     {
  55:/Users/ansel/Documents/DaisyExamples/libDaisy//src/hid/audio.h ****         OK,
  56:/Users/ansel/Documents/DaisyExamples/libDaisy//src/hid/audio.h ****         ERR,
  57:/Users/ansel/Documents/DaisyExamples/libDaisy//src/hid/audio.h ****     };
  58:/Users/ansel/Documents/DaisyExamples/libDaisy//src/hid/audio.h **** 
  59:/Users/ansel/Documents/DaisyExamples/libDaisy//src/hid/audio.h ****     /** Non-Interleaving input buffer
  60:/Users/ansel/Documents/DaisyExamples/libDaisy//src/hid/audio.h ****      * Buffer arranged by float[chn][sample] 
  61:/Users/ansel/Documents/DaisyExamples/libDaisy//src/hid/audio.h ****      * const so that the user can't modify the input
  62:/Users/ansel/Documents/DaisyExamples/libDaisy//src/hid/audio.h ****      */
  63:/Users/ansel/Documents/DaisyExamples/libDaisy//src/hid/audio.h ****     typedef const float* const* InputBuffer;
  64:/Users/ansel/Documents/DaisyExamples/libDaisy//src/hid/audio.h **** 
  65:/Users/ansel/Documents/DaisyExamples/libDaisy//src/hid/audio.h ****     /** Non-Interleaving output buffer
  66:/Users/ansel/Documents/DaisyExamples/libDaisy//src/hid/audio.h ****      * Arranged by float[chn][sample] 
  67:/Users/ansel/Documents/DaisyExamples/libDaisy//src/hid/audio.h ****      */
  68:/Users/ansel/Documents/DaisyExamples/libDaisy//src/hid/audio.h ****     typedef float** OutputBuffer;
  69:/Users/ansel/Documents/DaisyExamples/libDaisy//src/hid/audio.h **** 
  70:/Users/ansel/Documents/DaisyExamples/libDaisy//src/hid/audio.h ****     /** Type for a Non-Interleaving audio callback 
  71:/Users/ansel/Documents/DaisyExamples/libDaisy//src/hid/audio.h ****      * Non-Interleaving audio callbacks in daisy will be of this type
  72:/Users/ansel/Documents/DaisyExamples/libDaisy//src/hid/audio.h ****      */
  73:/Users/ansel/Documents/DaisyExamples/libDaisy//src/hid/audio.h ****     typedef void (*AudioCallback)(InputBuffer  in,
  74:/Users/ansel/Documents/DaisyExamples/libDaisy//src/hid/audio.h ****                                   OutputBuffer out,
  75:/Users/ansel/Documents/DaisyExamples/libDaisy//src/hid/audio.h ****                                   size_t       size);
  76:/Users/ansel/Documents/DaisyExamples/libDaisy//src/hid/audio.h **** 
  77:/Users/ansel/Documents/DaisyExamples/libDaisy//src/hid/audio.h ****     /** Interleaving Input buffer
  78:/Users/ansel/Documents/DaisyExamples/libDaisy//src/hid/audio.h ****      ** audio is prepared as { L0, R0, L1, R1, . . . LN, RN }]
  79:/Users/ansel/Documents/DaisyExamples/libDaisy//src/hid/audio.h ****      ** this is const, as the user shouldn't modify it
  80:/Users/ansel/Documents/DaisyExamples/libDaisy//src/hid/audio.h ****     */
  81:/Users/ansel/Documents/DaisyExamples/libDaisy//src/hid/audio.h ****     typedef const float* InterleavingInputBuffer;
  82:/Users/ansel/Documents/DaisyExamples/libDaisy//src/hid/audio.h **** 
  83:/Users/ansel/Documents/DaisyExamples/libDaisy//src/hid/audio.h ****     /** Interleaving Output buffer 
  84:/Users/ansel/Documents/DaisyExamples/libDaisy//src/hid/audio.h ****      ** audio is prepared as { L0, R0, L1, R1, . . . LN, RN }
  85:/Users/ansel/Documents/DaisyExamples/libDaisy//src/hid/audio.h ****     */
  86:/Users/ansel/Documents/DaisyExamples/libDaisy//src/hid/audio.h ****     typedef float* InterleavingOutputBuffer;
  87:/Users/ansel/Documents/DaisyExamples/libDaisy//src/hid/audio.h **** 
  88:/Users/ansel/Documents/DaisyExamples/libDaisy//src/hid/audio.h ****     /** Interleaving Audio Callback 
  89:/Users/ansel/Documents/DaisyExamples/libDaisy//src/hid/audio.h ****      * Interleaving audio callbacks in daisy must be of this type
  90:/Users/ansel/Documents/DaisyExamples/libDaisy//src/hid/audio.h ****      */
  91:/Users/ansel/Documents/DaisyExamples/libDaisy//src/hid/audio.h ****     typedef void (*InterleavingAudioCallback)(InterleavingInputBuffer  in,
  92:/Users/ansel/Documents/DaisyExamples/libDaisy//src/hid/audio.h ****                                               InterleavingOutputBuffer out,
  93:/Users/ansel/Documents/DaisyExamples/libDaisy//src/hid/audio.h ****                                               size_t                   size);
  94:/Users/ansel/Documents/DaisyExamples/libDaisy//src/hid/audio.h **** 
  95:/Users/ansel/Documents/DaisyExamples/libDaisy//src/hid/audio.h ****     AudioHandle() : pimpl_(nullptr) {}
  96:/Users/ansel/Documents/DaisyExamples/libDaisy//src/hid/audio.h ****     ~AudioHandle() {}
  57              		.loc 6 96 5 is_stmt 1 view .LVU7
  58              		.loc 6 96 5 is_stmt 0 view .LVU8
  59              	.LBE290:
  60              		.loc 2 22 19 view .LVU9
  61 0000 7047     		bx	lr
  62              		.cfi_endproc
  63              	.LFE2322:
  65              		.weak	_ZN5daisy9DaisySeedD1Ev
  66              		.thumb_set _ZN5daisy9DaisySeedD1Ev,_ZN5daisy9DaisySeedD2Ev
  67 0002 00BF     		.section	.text._ZN7daisysp10OscillatorD2Ev,"axG",%progbits,_ZN7daisysp10OscillatorD5Ev,comdat
  68              		.align	1
  69              		.p2align 2,,3
  70              		.weak	_ZN7daisysp10OscillatorD2Ev
ARM GAS  /var/folders/5r/jcdnhfj535b7rff_ygc02qhr0000gn/T//ccwk7XuB.s 			page 8


  71              		.syntax unified
  72              		.thumb
  73              		.thumb_func
  75              	_ZN7daisysp10OscillatorD2Ev:
  76              	.LVL1:
  77              	.LFB4202:
  78              		.file 7 "/Users/ansel/Documents/DaisyExamples/DaisySP//Source/Synthesis/oscillator.h"
   1:/Users/ansel/Documents/DaisyExamples/DaisySP//Source/Synthesis/oscillator.h **** #pragma once
   2:/Users/ansel/Documents/DaisyExamples/DaisySP//Source/Synthesis/oscillator.h **** #ifndef DSY_OSCILLATOR_H
   3:/Users/ansel/Documents/DaisyExamples/DaisySP//Source/Synthesis/oscillator.h **** #define DSY_OSCILLATOR_H
   4:/Users/ansel/Documents/DaisyExamples/DaisySP//Source/Synthesis/oscillator.h **** #include <stdint.h>
   5:/Users/ansel/Documents/DaisyExamples/DaisySP//Source/Synthesis/oscillator.h **** #include "Utility/dsp.h"
   6:/Users/ansel/Documents/DaisyExamples/DaisySP//Source/Synthesis/oscillator.h **** #ifdef __cplusplus
   7:/Users/ansel/Documents/DaisyExamples/DaisySP//Source/Synthesis/oscillator.h **** 
   8:/Users/ansel/Documents/DaisyExamples/DaisySP//Source/Synthesis/oscillator.h **** namespace daisysp
   9:/Users/ansel/Documents/DaisyExamples/DaisySP//Source/Synthesis/oscillator.h **** {
  10:/Users/ansel/Documents/DaisyExamples/DaisySP//Source/Synthesis/oscillator.h **** /** Synthesis of several waveforms, including polyBLEP bandlimited waveforms.
  11:/Users/ansel/Documents/DaisyExamples/DaisySP//Source/Synthesis/oscillator.h **** */
  12:/Users/ansel/Documents/DaisyExamples/DaisySP//Source/Synthesis/oscillator.h **** class Oscillator
  13:/Users/ansel/Documents/DaisyExamples/DaisySP//Source/Synthesis/oscillator.h **** {
  14:/Users/ansel/Documents/DaisyExamples/DaisySP//Source/Synthesis/oscillator.h ****   public:
  15:/Users/ansel/Documents/DaisyExamples/DaisySP//Source/Synthesis/oscillator.h ****     Oscillator() {}
  16:/Users/ansel/Documents/DaisyExamples/DaisySP//Source/Synthesis/oscillator.h ****     ~Oscillator() {}
  79              		.loc 7 16 5 is_stmt 1 view -0
  80              		.cfi_startproc
  81              		@ args = 0, pretend = 0, frame = 0
  82              		@ frame_needed = 0, uses_anonymous_args = 0
  83              		@ link register save eliminated.
  84              		.loc 7 16 20 is_stmt 0 view .LVU11
  85 0000 7047     		bx	lr
  86              		.cfi_endproc
  87              	.LFE4202:
  89              		.weak	_ZN7daisysp10OscillatorD1Ev
  90              		.thumb_set _ZN7daisysp10OscillatorD1Ev,_ZN7daisysp10OscillatorD2Ev
  91 0002 00BF     		.section	.text._ZN7daisysp8ReverbScD2Ev,"axG",%progbits,_ZN7daisysp8ReverbScD5Ev,comdat
  92              		.align	1
  93              		.p2align 2,,3
  94              		.weak	_ZN7daisysp8ReverbScD2Ev
  95              		.syntax unified
  96              		.thumb
  97              		.thumb_func
  99              	_ZN7daisysp8ReverbScD2Ev:
 100              	.LVL2:
 101              	.LFB4406:
 102              		.file 8 "/Users/ansel/Documents/DaisyExamples/DaisySP//Source/Effects/reverbsc.h"
   1:/Users/ansel/Documents/DaisyExamples/DaisySP//Source/Effects/reverbsc.h **** #pragma once
   2:/Users/ansel/Documents/DaisyExamples/DaisySP//Source/Effects/reverbsc.h **** #ifndef DSYSP_REVERBSC_H
   3:/Users/ansel/Documents/DaisyExamples/DaisySP//Source/Effects/reverbsc.h **** #define DSYSP_REVERBSC_H
   4:/Users/ansel/Documents/DaisyExamples/DaisySP//Source/Effects/reverbsc.h **** 
   5:/Users/ansel/Documents/DaisyExamples/DaisySP//Source/Effects/reverbsc.h **** #define DSY_REVERBSC_MAX_SIZE 98936
   6:/Users/ansel/Documents/DaisyExamples/DaisySP//Source/Effects/reverbsc.h **** 
   7:/Users/ansel/Documents/DaisyExamples/DaisySP//Source/Effects/reverbsc.h **** namespace daisysp
   8:/Users/ansel/Documents/DaisyExamples/DaisySP//Source/Effects/reverbsc.h **** {
   9:/Users/ansel/Documents/DaisyExamples/DaisySP//Source/Effects/reverbsc.h **** /**Delay line for internal reverb use
  10:/Users/ansel/Documents/DaisyExamples/DaisySP//Source/Effects/reverbsc.h **** */
  11:/Users/ansel/Documents/DaisyExamples/DaisySP//Source/Effects/reverbsc.h **** typedef struct
  12:/Users/ansel/Documents/DaisyExamples/DaisySP//Source/Effects/reverbsc.h **** {
ARM GAS  /var/folders/5r/jcdnhfj535b7rff_ygc02qhr0000gn/T//ccwk7XuB.s 			page 9


  13:/Users/ansel/Documents/DaisyExamples/DaisySP//Source/Effects/reverbsc.h ****     int    write_pos;         /**< write position */
  14:/Users/ansel/Documents/DaisyExamples/DaisySP//Source/Effects/reverbsc.h ****     int    buffer_size;       /**< buffer size */
  15:/Users/ansel/Documents/DaisyExamples/DaisySP//Source/Effects/reverbsc.h ****     int    read_pos;          /**< read position */
  16:/Users/ansel/Documents/DaisyExamples/DaisySP//Source/Effects/reverbsc.h ****     int    read_pos_frac;     /**< fractional component of read pos */
  17:/Users/ansel/Documents/DaisyExamples/DaisySP//Source/Effects/reverbsc.h ****     int    read_pos_frac_inc; /**< increment for fractional */
  18:/Users/ansel/Documents/DaisyExamples/DaisySP//Source/Effects/reverbsc.h ****     int    dummy;             /**<  dummy var */
  19:/Users/ansel/Documents/DaisyExamples/DaisySP//Source/Effects/reverbsc.h ****     int    seed_val;          /**< randseed */
  20:/Users/ansel/Documents/DaisyExamples/DaisySP//Source/Effects/reverbsc.h ****     int    rand_line_cnt;     /**< number of random lines */
  21:/Users/ansel/Documents/DaisyExamples/DaisySP//Source/Effects/reverbsc.h ****     float  filter_state;      /**< state of filter */
  22:/Users/ansel/Documents/DaisyExamples/DaisySP//Source/Effects/reverbsc.h ****     float *buf;               /**< buffer ptr */
  23:/Users/ansel/Documents/DaisyExamples/DaisySP//Source/Effects/reverbsc.h **** } ReverbScDl;
  24:/Users/ansel/Documents/DaisyExamples/DaisySP//Source/Effects/reverbsc.h **** 
  25:/Users/ansel/Documents/DaisyExamples/DaisySP//Source/Effects/reverbsc.h **** /** Stereo Reverb
  26:/Users/ansel/Documents/DaisyExamples/DaisySP//Source/Effects/reverbsc.h **** 
  27:/Users/ansel/Documents/DaisyExamples/DaisySP//Source/Effects/reverbsc.h **** Reverb SC:               Ported from csound/soundpipe
  28:/Users/ansel/Documents/DaisyExamples/DaisySP//Source/Effects/reverbsc.h **** 
  29:/Users/ansel/Documents/DaisyExamples/DaisySP//Source/Effects/reverbsc.h **** Original author(s):        Sean Costello, Istvan Varga
  30:/Users/ansel/Documents/DaisyExamples/DaisySP//Source/Effects/reverbsc.h **** 
  31:/Users/ansel/Documents/DaisyExamples/DaisySP//Source/Effects/reverbsc.h **** Year:                    1999, 2005
  32:/Users/ansel/Documents/DaisyExamples/DaisySP//Source/Effects/reverbsc.h **** 
  33:/Users/ansel/Documents/DaisyExamples/DaisySP//Source/Effects/reverbsc.h **** Ported to soundpipe by:  Paul Batchelor
  34:/Users/ansel/Documents/DaisyExamples/DaisySP//Source/Effects/reverbsc.h **** 
  35:/Users/ansel/Documents/DaisyExamples/DaisySP//Source/Effects/reverbsc.h **** Ported by:                Stephen Hensley
  36:/Users/ansel/Documents/DaisyExamples/DaisySP//Source/Effects/reverbsc.h **** */
  37:/Users/ansel/Documents/DaisyExamples/DaisySP//Source/Effects/reverbsc.h **** class ReverbSc
  38:/Users/ansel/Documents/DaisyExamples/DaisySP//Source/Effects/reverbsc.h **** {
  39:/Users/ansel/Documents/DaisyExamples/DaisySP//Source/Effects/reverbsc.h ****   public:
  40:/Users/ansel/Documents/DaisyExamples/DaisySP//Source/Effects/reverbsc.h ****     ReverbSc() {}
  41:/Users/ansel/Documents/DaisyExamples/DaisySP//Source/Effects/reverbsc.h ****     ~ReverbSc() {}
 103              		.loc 8 41 5 is_stmt 1 view -0
 104              		.cfi_startproc
 105              		@ args = 0, pretend = 0, frame = 0
 106              		@ frame_needed = 0, uses_anonymous_args = 0
 107              		@ link register save eliminated.
 108              		.loc 8 41 18 is_stmt 0 view .LVU13
 109 0000 7047     		bx	lr
 110              		.cfi_endproc
 111              	.LFE4406:
 113              		.weak	_ZN7daisysp8ReverbScD1Ev
 114              		.thumb_set _ZN7daisysp8ReverbScD1Ev,_ZN7daisysp8ReverbScD2Ev
 115 0002 00BF     		.section	.text._ZN7daisysp6BiquadD2Ev,"axG",%progbits,_ZN7daisysp6BiquadD5Ev,comdat
 116              		.align	1
 117              		.p2align 2,,3
 118              		.weak	_ZN7daisysp6BiquadD2Ev
 119              		.syntax unified
 120              		.thumb
 121              		.thumb_func
 123              	_ZN7daisysp6BiquadD2Ev:
 124              	.LVL3:
 125              	.LFB4481:
 126              		.file 9 "/Users/ansel/Documents/DaisyExamples/DaisySP//Source/Filters/biquad.h"
   1:/Users/ansel/Documents/DaisyExamples/DaisySP//Source/Filters/biquad.h **** #pragma once
   2:/Users/ansel/Documents/DaisyExamples/DaisySP//Source/Filters/biquad.h **** #ifndef DSY_BIQUAD_H
   3:/Users/ansel/Documents/DaisyExamples/DaisySP//Source/Filters/biquad.h **** #define DSY_BIQUAD_H
   4:/Users/ansel/Documents/DaisyExamples/DaisySP//Source/Filters/biquad.h **** 
   5:/Users/ansel/Documents/DaisyExamples/DaisySP//Source/Filters/biquad.h **** #include <stdint.h>
   6:/Users/ansel/Documents/DaisyExamples/DaisySP//Source/Filters/biquad.h **** #ifdef __cplusplus
ARM GAS  /var/folders/5r/jcdnhfj535b7rff_ygc02qhr0000gn/T//ccwk7XuB.s 			page 10


   7:/Users/ansel/Documents/DaisyExamples/DaisySP//Source/Filters/biquad.h **** 
   8:/Users/ansel/Documents/DaisyExamples/DaisySP//Source/Filters/biquad.h **** namespace daisysp
   9:/Users/ansel/Documents/DaisyExamples/DaisySP//Source/Filters/biquad.h **** {
  10:/Users/ansel/Documents/DaisyExamples/DaisySP//Source/Filters/biquad.h **** /** Two pole recursive filter
  11:/Users/ansel/Documents/DaisyExamples/DaisySP//Source/Filters/biquad.h **** 
  12:/Users/ansel/Documents/DaisyExamples/DaisySP//Source/Filters/biquad.h ****     Original author(s) : Hans Mikelson
  13:/Users/ansel/Documents/DaisyExamples/DaisySP//Source/Filters/biquad.h **** 
  14:/Users/ansel/Documents/DaisyExamples/DaisySP//Source/Filters/biquad.h ****     Year: 1998
  15:/Users/ansel/Documents/DaisyExamples/DaisySP//Source/Filters/biquad.h **** 
  16:/Users/ansel/Documents/DaisyExamples/DaisySP//Source/Filters/biquad.h ****     Ported from soundpipe by Ben Sergentanis, May 2020
  17:/Users/ansel/Documents/DaisyExamples/DaisySP//Source/Filters/biquad.h **** */
  18:/Users/ansel/Documents/DaisyExamples/DaisySP//Source/Filters/biquad.h **** class Biquad
  19:/Users/ansel/Documents/DaisyExamples/DaisySP//Source/Filters/biquad.h **** {
  20:/Users/ansel/Documents/DaisyExamples/DaisySP//Source/Filters/biquad.h ****   public:
  21:/Users/ansel/Documents/DaisyExamples/DaisySP//Source/Filters/biquad.h ****     Biquad() {}
  22:/Users/ansel/Documents/DaisyExamples/DaisySP//Source/Filters/biquad.h ****     ~Biquad() {}
 127              		.loc 9 22 5 is_stmt 1 view -0
 128              		.cfi_startproc
 129              		@ args = 0, pretend = 0, frame = 0
 130              		@ frame_needed = 0, uses_anonymous_args = 0
 131              		@ link register save eliminated.
 132              		.loc 9 22 16 is_stmt 0 view .LVU15
 133 0000 7047     		bx	lr
 134              		.cfi_endproc
 135              	.LFE4481:
 137              		.weak	_ZN7daisysp6BiquadD1Ev
 138              		.thumb_set _ZN7daisysp6BiquadD1Ev,_ZN7daisysp6BiquadD2Ev
 139 0002 00BF     		.section	.text._Z13AudioCallbackPKPKfPPfj,"ax",%progbits
 140              		.align	1
 141              		.p2align 2,,3
 142              		.global	_Z13AudioCallbackPKPKfPPfj
 143              		.syntax unified
 144              		.thumb
 145              		.thumb_func
 147              	_Z13AudioCallbackPKPKfPPfj:
 148              	.LVL4:
 149              	.LFB4778:
   1:big_knob.cpp  **** #include "daisy_seed.h"
   2:big_knob.cpp  **** #include "daisysp.h"
   3:big_knob.cpp  **** 
   4:big_knob.cpp  **** #define NUM_OUT_PINS 13
   5:big_knob.cpp  **** #define NUM_IN_PINS  9
   6:big_knob.cpp  **** #define NUM_KNOBS    18
   7:big_knob.cpp  **** #define NUM_MUXES    4
   8:big_knob.cpp  **** 
   9:big_knob.cpp  **** using namespace daisy;
  10:big_knob.cpp  **** using namespace daisy::seed;
  11:big_knob.cpp  **** using namespace daisysp;
  12:big_knob.cpp  **** 
  13:big_knob.cpp  **** enum INS {
  14:big_knob.cpp  ****     I_FLT1 = 0,
  15:big_knob.cpp  ****     I_FLT2 = 1,
  16:big_knob.cpp  ****     I_FLT3 = 2,
  17:big_knob.cpp  ****     I_ENV1 = 3,
  18:big_knob.cpp  ****     I_ENV2 = 4,
  19:big_knob.cpp  ****     I_ENV3 = 5,
  20:big_knob.cpp  ****     I_REVERB = 4,
ARM GAS  /var/folders/5r/jcdnhfj535b7rff_ygc02qhr0000gn/T//ccwk7XuB.s 			page 11


  21:big_knob.cpp  ****     I_DELAY = 5,
  22:big_knob.cpp  ****     I_SPEAKERS = 6,
  23:big_knob.cpp  **** };
  24:big_knob.cpp  **** 
  25:big_knob.cpp  **** enum OUTS {
  26:big_knob.cpp  ****     O_OSC1 = 0,
  27:big_knob.cpp  ****     O_OSC2 = 1,
  28:big_knob.cpp  ****     O_OSC3 = 2,
  29:big_knob.cpp  ****     O_NOISE1 = 3,
  30:big_knob.cpp  ****     O_NOISE2 = 4,
  31:big_knob.cpp  ****     O_FLT1 = 5,
  32:big_knob.cpp  ****     O_FLT2 = 6,
  33:big_knob.cpp  ****     O_FLT3 = 7,
  34:big_knob.cpp  ****     O_ENV1 = 8,
  35:big_knob.cpp  ****     O_ENV2 = 9,
  36:big_knob.cpp  ****     O_ENV3 = 10,
  37:big_knob.cpp  ****     O_REVERB = 11,
  38:big_knob.cpp  ****     O_DELAY = 12,
  39:big_knob.cpp  **** };
  40:big_knob.cpp  **** 
  41:big_knob.cpp  **** DaisySeed hw;
  42:big_knob.cpp  **** 
  43:big_knob.cpp  **** Oscillator osc1;
  44:big_knob.cpp  **** Oscillator osc2;
  45:big_knob.cpp  **** Oscillator osc3;
  46:big_knob.cpp  **** Biquad     flt1;
  47:big_knob.cpp  **** Biquad     flt2;
  48:big_knob.cpp  **** Biquad     flt3;
  49:big_knob.cpp  **** ReverbSc   reverb;
  50:big_knob.cpp  **** 
  51:big_knob.cpp  **** GPIO power;
  52:big_knob.cpp  **** GPIO outPins[NUM_OUT_PINS];
  53:big_knob.cpp  **** GPIO inPins[NUM_IN_PINS];
  54:big_knob.cpp  **** /* LEVELS
  55:big_knob.cpp  **** 0: OSC1 S
  56:big_knob.cpp  **** 1: OSC1 F
  57:big_knob.cpp  **** 2: OSC1 L
  58:big_knob.cpp  **** 3: OSC2 S
  59:big_knob.cpp  **** 4: OSC2 F
  60:big_knob.cpp  **** 5: OSC2 L
  61:big_knob.cpp  **** 6: OSC3 S
  62:big_knob.cpp  **** 7: OSC3 F
  63:big_knob.cpp  **** 8: OSC3 L
  64:big_knob.cpp  **** 9: FLT1 C
  65:big_knob.cpp  **** 10: FLT1 R
  66:big_knob.cpp  **** 11: FLT2 C
  67:big_knob.cpp  **** 12: FLT2 R
  68:big_knob.cpp  **** 13: FLT3 C
  69:big_knob.cpp  **** 14: FLT3 R
  70:big_knob.cpp  **** 15: REV F
  71:big_knob.cpp  **** 16: REV C
  72:big_knob.cpp  **** 17: REV M
  73:big_knob.cpp  **** */
  74:big_knob.cpp  **** float levels[8 * NUM_MUXES];
  75:big_knob.cpp  **** int   patchbay[NUM_OUT_PINS][NUM_IN_PINS];
  76:big_knob.cpp  **** 
  77:big_knob.cpp  **** // for 3-way switch inputs
ARM GAS  /var/folders/5r/jcdnhfj535b7rff_ygc02qhr0000gn/T//ccwk7XuB.s 			page 12


  78:big_knob.cpp  **** int pot_switch(float n) {
  79:big_knob.cpp  ****     float val = n * 3;
  80:big_knob.cpp  ****     if (val > 2) {
  81:big_knob.cpp  ****         return 3;
  82:big_knob.cpp  ****     }
  83:big_knob.cpp  ****     if (val > 1) {
  84:big_knob.cpp  ****         return 2;
  85:big_knob.cpp  ****     }
  86:big_knob.cpp  ****     return 1;
  87:big_knob.cpp  **** }
  88:big_knob.cpp  **** 
  89:big_knob.cpp  **** void AudioCallback(AudioHandle::InputBuffer  in,
  90:big_knob.cpp  ****                    AudioHandle::OutputBuffer out,
  91:big_knob.cpp  ****                    size_t                    size) {
 150              		.loc 1 91 52 is_stmt 1 view -0
 151              		.cfi_startproc
 152              		@ args = 0, pretend = 0, frame = 24
 153              		@ frame_needed = 0, uses_anonymous_args = 0
  92:big_knob.cpp  ****     // if power switch is off, no sound
  93:big_knob.cpp  ****     if (!power.Read()) {
 154              		.loc 1 93 5 view .LVU17
  91:big_knob.cpp  ****     // if power switch is off, no sound
 155              		.loc 1 91 52 is_stmt 0 view .LVU18
 156 0000 2DE9F04F 		push	{r4, r5, r6, r7, r8, r9, r10, fp, lr}
 157              		.cfi_def_cfa_offset 36
 158              		.cfi_offset 4, -36
 159              		.cfi_offset 5, -32
 160              		.cfi_offset 6, -28
 161              		.cfi_offset 7, -24
 162              		.cfi_offset 8, -20
 163              		.cfi_offset 9, -16
 164              		.cfi_offset 10, -12
 165              		.cfi_offset 11, -8
 166              		.cfi_offset 14, -4
 167              	.LBB364:
 168              		.loc 1 93 20 view .LVU19
 169 0004 9648     		ldr	r0, .L66+16
 170              	.LVL5:
 171              		.loc 1 93 20 view .LVU20
 172              	.LBE364:
  91:big_knob.cpp  ****     // if power switch is off, no sound
 173              		.loc 1 91 52 view .LVU21
 174 0006 0F46     		mov	r7, r1
 175 0008 9046     		mov	r8, r2
 176 000a 2DED028B 		vpush.64	{d8}
 177              		.cfi_def_cfa_offset 44
 178              		.cfi_offset 80, -44
 179              		.cfi_offset 81, -40
 180 000e 89B0     		sub	sp, sp, #36
 181              		.cfi_def_cfa_offset 80
 182              	.LBB368:
 183              		.loc 1 93 20 view .LVU22
 184 0010 FFF7FEFF 		bl	_ZN5daisy4GPIO4ReadEv
 185              	.LVL6:
 186              		.loc 1 93 5 view .LVU23
 187 0014 0028     		cmp	r0, #0
 188 0016 00F0F281 		beq	.L7
ARM GAS  /var/folders/5r/jcdnhfj535b7rff_ygc02qhr0000gn/T//ccwk7XuB.s 			page 13


 189 001a DFF87492 		ldr	r9, .L66+64
 190              	.LBE368:
 191              	.LBB369:
 192              	.LBB370:
 193              	.LBB371:
  94:big_knob.cpp  ****         for (size_t i = 0; i < size; i++) {
  95:big_knob.cpp  ****             out[0][i] = 0.0f;
  96:big_knob.cpp  ****             out[1][i] = 0.0f;
  97:big_knob.cpp  ****         }
  98:big_knob.cpp  ****         return;
  99:big_knob.cpp  ****     }
 100:big_knob.cpp  **** 
 101:big_knob.cpp  ****     // read inputs
 102:big_knob.cpp  ****     for (int i = 0; i < NUM_MUXES; i++) {
 194              		.loc 1 102 14 view .LVU24
 195 001e 4FF0000A 		mov	r10, #0
 196 0022 CB46     		mov	fp, r9
 197              	.L8:
 198              	.LVL7:
 199              	.LBB372:
 103:big_knob.cpp  ****         for (int j = 0; j < 8; j++) {
 200              		.loc 1 103 27 is_stmt 1 view .LVU25
 201 0024 5FFA8AF6 		uxtb	r6, r10
 202              	.LBE372:
 203              	.LBE371:
 204              	.LBE370:
 205              	.LBE369:
  91:big_knob.cpp  ****     // if power switch is off, no sound
 206              		.loc 1 91 52 is_stmt 0 view .LVU26
 207 0028 5D46     		mov	r5, fp
 208              	.LBB528:
 209              	.LBB525:
 210              	.LBB374:
 211              	.LBB373:
 212              		.loc 1 103 18 view .LVU27
 213 002a 0024     		movs	r4, #0
 214              	.LVL8:
 215              	.L10:
 104:big_knob.cpp  ****             levels[(i * 8) + j] = hw.adc.GetMuxFloat(i, j);
 216              		.loc 1 104 13 is_stmt 1 view .LVU28
 217              		.loc 1 104 53 is_stmt 0 view .LVU29
 218 002c E2B2     		uxtb	r2, r4
 103:big_knob.cpp  ****         for (int j = 0; j < 8; j++) {
 219              		.loc 1 103 9 view .LVU30
 220 002e 0134     		adds	r4, r4, #1
 221              	.LVL9:
 222              		.loc 1 104 53 view .LVU31
 223 0030 3146     		mov	r1, r6
 224 0032 8C48     		ldr	r0, .L66+20
 225 0034 FFF7FEFF 		bl	_ZNK5daisy9AdcHandle11GetMuxFloatEhh
 226              	.LVL10:
 103:big_knob.cpp  ****         for (int j = 0; j < 8; j++) {
 227              		.loc 1 103 27 view .LVU32
 228 0038 082C     		cmp	r4, #8
 229              		.loc 1 104 33 view .LVU33
 230 003a A5EC010A 		vstmia.32	r5!, {s0}
 103:big_knob.cpp  ****         for (int j = 0; j < 8; j++) {
ARM GAS  /var/folders/5r/jcdnhfj535b7rff_ygc02qhr0000gn/T//ccwk7XuB.s 			page 14


 231              		.loc 1 103 9 is_stmt 1 view .LVU34
 232              	.LVL11:
 103:big_knob.cpp  ****         for (int j = 0; j < 8; j++) {
 233              		.loc 1 103 27 view .LVU35
 234 003e F5D1     		bne	.L10
 235              	.LBE373:
 102:big_knob.cpp  ****         for (int j = 0; j < 8; j++) {
 236              		.loc 1 102 5 view .LVU36
 237 0040 0AF1010A 		add	r10, r10, #1
 238              	.LVL12:
 102:big_knob.cpp  ****         for (int j = 0; j < 8; j++) {
 239              		.loc 1 102 23 view .LVU37
 240 0044 0BF1200B 		add	fp, fp, #32
 241 0048 BAF1040F 		cmp	r10, #4
 242 004c EAD1     		bne	.L8
 243              	.LBE374:
 105:big_knob.cpp  ****         }
 106:big_knob.cpp  ****     }
 107:big_knob.cpp  **** 
 108:big_knob.cpp  ****     // osc1
 109:big_knob.cpp  ****     int wf = pot_switch(levels[0]);
 244              		.loc 1 109 5 view .LVU38
 245              	.LVL13:
 246              	.LBB375:
 247              	.LBI375:
  78:big_knob.cpp  ****     float val = n * 3;
 248              		.loc 1 78 5 view .LVU39
 249              	.LBB376:
  79:big_knob.cpp  ****     if (val > 2) {
 250              		.loc 1 79 5 view .LVU40
  79:big_knob.cpp  ****     if (val > 2) {
 251              		.loc 1 79 11 is_stmt 0 view .LVU41
 252 004e F0EE086A 		vmov.f32	s13, #3.0e+0
 253 0052 D9ED007A 		vldr.32	s15, [r9]
  80:big_knob.cpp  ****         return 3;
 254              		.loc 1 80 5 view .LVU42
 255 0056 B0EE007A 		vmov.f32	s14, #2.0e+0
  79:big_knob.cpp  ****     if (val > 2) {
 256              		.loc 1 79 11 view .LVU43
 257 005a 67EEA67A 		vmul.f32	s15, s15, s13
 258              	.LVL14:
  80:big_knob.cpp  ****         return 3;
 259              		.loc 1 80 5 is_stmt 1 view .LVU44
 260 005e F4EEC77A 		vcmpe.f32	s15, s14
 261 0062 F1EE10FA 		vmrs	APSR_nzcv, FPSCR
 262 0066 00F32982 		bgt	.L40
  83:big_knob.cpp  ****         return 2;
 263              		.loc 1 83 5 view .LVU45
 264 006a B7EE007A 		vmov.f32	s14, #1.0e+0
 265 006e F4EEC77A 		vcmpe.f32	s15, s14
 266 0072 F1EE10FA 		vmrs	APSR_nzcv, FPSCR
 267 0076 CCBF     		ite	gt
 268 0078 0123     		movgt	r3, #1
 269 007a 0023     		movle	r3, #0
 270              	.L12:
 271              	.LVL15:
  83:big_knob.cpp  ****         return 2;
ARM GAS  /var/folders/5r/jcdnhfj535b7rff_ygc02qhr0000gn/T//ccwk7XuB.s 			page 15


 272              		.loc 1 83 5 is_stmt 0 view .LVU46
 273              	.LBE376:
 274              	.LBE375:
 110:big_knob.cpp  ****     if (wf == 1) {
 111:big_knob.cpp  ****         osc1.SetWaveform(Oscillator::WAVE_SIN);
 112:big_knob.cpp  ****     } else if (wf == 2) {
 113:big_knob.cpp  ****         osc1.SetWaveform(Oscillator::WAVE_TRI);
 114:big_knob.cpp  ****     } else if (wf == 3) {
 115:big_knob.cpp  ****         osc1.SetWaveform(Oscillator::WAVE_SAW);
 116:big_knob.cpp  ****     }
 117:big_knob.cpp  ****     osc1.SetFreq(levels[1] * 1000);
 275              		.loc 1 117 17 view .LVU47
 276 007c DFED7A7A 		vldr.32	s15, .L66+24
 277 0080 99ED010A 		vldr.32	s0, [r9, #4]
 278              	.LBB378:
 279              	.LBB379:
  17:/Users/ansel/Documents/DaisyExamples/DaisySP//Source/Synthesis/oscillator.h ****     /** Choices for output waveforms, POLYBLEP are appropriately labeled. Others are naive forms.
  18:/Users/ansel/Documents/DaisyExamples/DaisySP//Source/Synthesis/oscillator.h ****     */
  19:/Users/ansel/Documents/DaisyExamples/DaisySP//Source/Synthesis/oscillator.h ****     enum
  20:/Users/ansel/Documents/DaisyExamples/DaisySP//Source/Synthesis/oscillator.h ****     {
  21:/Users/ansel/Documents/DaisyExamples/DaisySP//Source/Synthesis/oscillator.h ****         WAVE_SIN,
  22:/Users/ansel/Documents/DaisyExamples/DaisySP//Source/Synthesis/oscillator.h ****         WAVE_TRI,
  23:/Users/ansel/Documents/DaisyExamples/DaisySP//Source/Synthesis/oscillator.h ****         WAVE_SAW,
  24:/Users/ansel/Documents/DaisyExamples/DaisySP//Source/Synthesis/oscillator.h ****         WAVE_RAMP,
  25:/Users/ansel/Documents/DaisyExamples/DaisySP//Source/Synthesis/oscillator.h ****         WAVE_SQUARE,
  26:/Users/ansel/Documents/DaisyExamples/DaisySP//Source/Synthesis/oscillator.h ****         WAVE_POLYBLEP_TRI,
  27:/Users/ansel/Documents/DaisyExamples/DaisySP//Source/Synthesis/oscillator.h ****         WAVE_POLYBLEP_SAW,
  28:/Users/ansel/Documents/DaisyExamples/DaisySP//Source/Synthesis/oscillator.h ****         WAVE_POLYBLEP_SQUARE,
  29:/Users/ansel/Documents/DaisyExamples/DaisySP//Source/Synthesis/oscillator.h ****         WAVE_LAST,
  30:/Users/ansel/Documents/DaisyExamples/DaisySP//Source/Synthesis/oscillator.h ****     };
  31:/Users/ansel/Documents/DaisyExamples/DaisySP//Source/Synthesis/oscillator.h **** 
  32:/Users/ansel/Documents/DaisyExamples/DaisySP//Source/Synthesis/oscillator.h **** 
  33:/Users/ansel/Documents/DaisyExamples/DaisySP//Source/Synthesis/oscillator.h ****     /** Initializes the Oscillator
  34:/Users/ansel/Documents/DaisyExamples/DaisySP//Source/Synthesis/oscillator.h **** 
  35:/Users/ansel/Documents/DaisyExamples/DaisySP//Source/Synthesis/oscillator.h ****         \param sample_rate - sample rate of the audio engine being run, and the frequency that the 
  36:/Users/ansel/Documents/DaisyExamples/DaisySP//Source/Synthesis/oscillator.h **** 
  37:/Users/ansel/Documents/DaisyExamples/DaisySP//Source/Synthesis/oscillator.h ****         Defaults:
  38:/Users/ansel/Documents/DaisyExamples/DaisySP//Source/Synthesis/oscillator.h ****         - freq_ = 100 Hz
  39:/Users/ansel/Documents/DaisyExamples/DaisySP//Source/Synthesis/oscillator.h ****         - amp_ = 0.5
  40:/Users/ansel/Documents/DaisyExamples/DaisySP//Source/Synthesis/oscillator.h ****         - waveform_ = sine wave.
  41:/Users/ansel/Documents/DaisyExamples/DaisySP//Source/Synthesis/oscillator.h ****     */
  42:/Users/ansel/Documents/DaisyExamples/DaisySP//Source/Synthesis/oscillator.h ****     void Init(float sample_rate)
  43:/Users/ansel/Documents/DaisyExamples/DaisySP//Source/Synthesis/oscillator.h ****     {
  44:/Users/ansel/Documents/DaisyExamples/DaisySP//Source/Synthesis/oscillator.h ****         sr_        = sample_rate;
  45:/Users/ansel/Documents/DaisyExamples/DaisySP//Source/Synthesis/oscillator.h ****         sr_recip_  = 1.0f / sample_rate;
  46:/Users/ansel/Documents/DaisyExamples/DaisySP//Source/Synthesis/oscillator.h ****         freq_      = 100.0f;
  47:/Users/ansel/Documents/DaisyExamples/DaisySP//Source/Synthesis/oscillator.h ****         amp_       = 0.5f;
  48:/Users/ansel/Documents/DaisyExamples/DaisySP//Source/Synthesis/oscillator.h ****         pw_        = 0.5f;
  49:/Users/ansel/Documents/DaisyExamples/DaisySP//Source/Synthesis/oscillator.h ****         pw_rad_    = pw_ * TWOPI_F;
  50:/Users/ansel/Documents/DaisyExamples/DaisySP//Source/Synthesis/oscillator.h ****         phase_     = 0.0f;
  51:/Users/ansel/Documents/DaisyExamples/DaisySP//Source/Synthesis/oscillator.h ****         phase_inc_ = CalcPhaseInc(freq_);
  52:/Users/ansel/Documents/DaisyExamples/DaisySP//Source/Synthesis/oscillator.h ****         waveform_  = WAVE_SIN;
  53:/Users/ansel/Documents/DaisyExamples/DaisySP//Source/Synthesis/oscillator.h ****         eoc_       = true;
  54:/Users/ansel/Documents/DaisyExamples/DaisySP//Source/Synthesis/oscillator.h ****         eor_       = true;
  55:/Users/ansel/Documents/DaisyExamples/DaisySP//Source/Synthesis/oscillator.h ****     }
  56:/Users/ansel/Documents/DaisyExamples/DaisySP//Source/Synthesis/oscillator.h **** 
  57:/Users/ansel/Documents/DaisyExamples/DaisySP//Source/Synthesis/oscillator.h **** 
ARM GAS  /var/folders/5r/jcdnhfj535b7rff_ygc02qhr0000gn/T//ccwk7XuB.s 			page 16


  58:/Users/ansel/Documents/DaisyExamples/DaisySP//Source/Synthesis/oscillator.h ****     /** Changes the frequency of the Oscillator, and recalculates phase increment.
  59:/Users/ansel/Documents/DaisyExamples/DaisySP//Source/Synthesis/oscillator.h ****     */
  60:/Users/ansel/Documents/DaisyExamples/DaisySP//Source/Synthesis/oscillator.h ****     inline void SetFreq(const float f)
  61:/Users/ansel/Documents/DaisyExamples/DaisySP//Source/Synthesis/oscillator.h ****     {
  62:/Users/ansel/Documents/DaisyExamples/DaisySP//Source/Synthesis/oscillator.h ****         freq_      = f;
  63:/Users/ansel/Documents/DaisyExamples/DaisySP//Source/Synthesis/oscillator.h ****         phase_inc_ = CalcPhaseInc(f);
  64:/Users/ansel/Documents/DaisyExamples/DaisySP//Source/Synthesis/oscillator.h ****     }
  65:/Users/ansel/Documents/DaisyExamples/DaisySP//Source/Synthesis/oscillator.h **** 
  66:/Users/ansel/Documents/DaisyExamples/DaisySP//Source/Synthesis/oscillator.h **** 
  67:/Users/ansel/Documents/DaisyExamples/DaisySP//Source/Synthesis/oscillator.h ****     /** Sets the amplitude of the waveform.
  68:/Users/ansel/Documents/DaisyExamples/DaisySP//Source/Synthesis/oscillator.h ****     */
  69:/Users/ansel/Documents/DaisyExamples/DaisySP//Source/Synthesis/oscillator.h ****     inline void SetAmp(const float a) { amp_ = a; }
  70:/Users/ansel/Documents/DaisyExamples/DaisySP//Source/Synthesis/oscillator.h ****     /** Sets the waveform to be synthesized by the Process() function.
  71:/Users/ansel/Documents/DaisyExamples/DaisySP//Source/Synthesis/oscillator.h ****     */
  72:/Users/ansel/Documents/DaisyExamples/DaisySP//Source/Synthesis/oscillator.h ****     inline void SetWaveform(const uint8_t wf)
  73:/Users/ansel/Documents/DaisyExamples/DaisySP//Source/Synthesis/oscillator.h ****     {
  74:/Users/ansel/Documents/DaisyExamples/DaisySP//Source/Synthesis/oscillator.h ****         waveform_ = wf < WAVE_LAST ? wf : WAVE_SIN;
 280              		.loc 7 74 19 view .LVU48
 281 0084 794C     		ldr	r4, .L66+28
 282              	.LVL16:
 283              		.loc 7 74 19 view .LVU49
 284              	.LBE379:
 285              	.LBE378:
 286              		.loc 1 117 17 view .LVU50
 287 0086 20EE270A 		vmul.f32	s0, s0, s15
 288              	.LBB381:
 289              	.LBB382:
  63:/Users/ansel/Documents/DaisyExamples/DaisySP//Source/Synthesis/oscillator.h ****     }
 290              		.loc 7 63 34 view .LVU51
 291 008a 2046     		mov	r0, r4
 292              	.LBE382:
 293              	.LBE381:
 294              	.LBB385:
 295              	.LBB380:
 296              		.loc 7 74 19 view .LVU52
 297 008c 2370     		strb	r3, [r4]
 298              	.LBE380:
 299              	.LBE385:
 300              		.loc 1 117 5 is_stmt 1 view .LVU53
 301              	.LVL17:
 302              	.LBB386:
 303              	.LBI381:
  60:/Users/ansel/Documents/DaisyExamples/DaisySP//Source/Synthesis/oscillator.h ****     {
 304              		.loc 7 60 17 view .LVU54
 305              	.LBB383:
  62:/Users/ansel/Documents/DaisyExamples/DaisySP//Source/Synthesis/oscillator.h ****         phase_inc_ = CalcPhaseInc(f);
 306              		.loc 7 62 9 view .LVU55
  62:/Users/ansel/Documents/DaisyExamples/DaisySP//Source/Synthesis/oscillator.h ****         phase_inc_ = CalcPhaseInc(f);
 307              		.loc 7 62 20 is_stmt 0 view .LVU56
 308 008e 84ED020A 		vstr.32	s0, [r4, #8]
  63:/Users/ansel/Documents/DaisyExamples/DaisySP//Source/Synthesis/oscillator.h ****     }
 309              		.loc 7 63 9 is_stmt 1 view .LVU57
  63:/Users/ansel/Documents/DaisyExamples/DaisySP//Source/Synthesis/oscillator.h ****     }
 310              		.loc 7 63 34 is_stmt 0 view .LVU58
 311 0092 FFF7FEFF 		bl	_ZN7daisysp10Oscillator12CalcPhaseIncEf
 312              	.LVL18:
  63:/Users/ansel/Documents/DaisyExamples/DaisySP//Source/Synthesis/oscillator.h ****     }
ARM GAS  /var/folders/5r/jcdnhfj535b7rff_ygc02qhr0000gn/T//ccwk7XuB.s 			page 17


 313              		.loc 7 63 34 view .LVU59
 314              	.LBE383:
 315              	.LBE386:
 118:big_knob.cpp  ****     osc1.SetAmp(levels[2] * 0.95);
 316              		.loc 1 118 25 view .LVU60
 317 0096 99ED027A 		vldr.32	s14, [r9, #8]
 318              	.LBB387:
 319              	.LBB388:
  79:big_knob.cpp  ****     if (val > 2) {
 320              		.loc 1 79 11 view .LVU61
 321 009a F0EE084A 		vmov.f32	s9, #3.0e+0
 322 009e D9ED036A 		vldr.32	s13, [r9, #12]
  80:big_knob.cpp  ****         return 3;
 323              		.loc 1 80 5 view .LVU62
 324 00a2 B0EE006A 		vmov.f32	s12, #2.0e+0
 325              	.LBE388:
 326              	.LBE387:
 327              		.loc 1 118 25 view .LVU63
 328 00a6 B7EEC77A 		vcvt.f64.f32	d7, s14
 329              	.LBB394:
 330              	.LBB384:
  63:/Users/ansel/Documents/DaisyExamples/DaisySP//Source/Synthesis/oscillator.h ****     }
 331              		.loc 7 63 20 view .LVU64
 332 00aa 84ED080A 		vstr.32	s0, [r4, #32]
 333              	.LVL19:
  63:/Users/ansel/Documents/DaisyExamples/DaisySP//Source/Synthesis/oscillator.h ****     }
 334              		.loc 7 63 20 view .LVU65
 335              	.LBE384:
 336              	.LBE394:
 337              		.loc 1 118 5 is_stmt 1 view .LVU66
 338              	.LBB395:
 339              	.LBI395:
  69:/Users/ansel/Documents/DaisyExamples/DaisySP//Source/Synthesis/oscillator.h ****     /** Sets the waveform to be synthesized by the Process() function.
 340              		.loc 7 69 17 view .LVU67
 341              	.LBB396:
  69:/Users/ansel/Documents/DaisyExamples/DaisySP//Source/Synthesis/oscillator.h ****     /** Sets the waveform to be synthesized by the Process() function.
 342              		.loc 7 69 41 view .LVU68
 343              	.LBE396:
 344              	.LBE395:
 345              	.LBB397:
 346              	.LBB389:
  79:big_knob.cpp  ****     if (val > 2) {
 347              		.loc 1 79 11 is_stmt 0 view .LVU69
 348 00ae 66EEA46A 		vmul.f32	s13, s13, s9
 349              	.LBE389:
 350              	.LBE397:
 351              		.loc 1 118 27 view .LVU70
 352 00b2 9FED675B 		vldr.64	d5, .L66
 353              	.LBB398:
 354              	.LBB390:
  80:big_knob.cpp  ****         return 3;
 355              		.loc 1 80 5 view .LVU71
 356 00b6 F4EEC66A 		vcmpe.f32	s13, s12
 357              	.LBE390:
 358              	.LBE398:
 359              		.loc 1 118 27 view .LVU72
 360 00ba 27EE057B 		vmul.f64	d7, d7, d5
ARM GAS  /var/folders/5r/jcdnhfj535b7rff_ygc02qhr0000gn/T//ccwk7XuB.s 			page 18


 361              	.LBB399:
 362              	.LBB391:
  80:big_knob.cpp  ****         return 3;
 363              		.loc 1 80 5 view .LVU73
 364 00be F1EE10FA 		vmrs	APSR_nzcv, FPSCR
 365              	.LBE391:
 366              	.LBE399:
 367              		.loc 1 118 16 view .LVU74
 368 00c2 B7EEC77B 		vcvt.f32.f64	s14, d7
 369              	.LVL20:
 370              		.loc 1 118 16 view .LVU75
 371 00c6 84ED017A 		vstr.32	s14, [r4, #4]
 372              	.LVL21:
 119:big_knob.cpp  **** 
 120:big_knob.cpp  ****     // osc2
 121:big_knob.cpp  ****     wf = pot_switch(levels[3]);
 373              		.loc 1 121 5 is_stmt 1 view .LVU76
 374              	.LBB400:
 375              	.LBI387:
  78:big_knob.cpp  ****     float val = n * 3;
 376              		.loc 1 78 5 view .LVU77
 377              	.LBB392:
  79:big_knob.cpp  ****     if (val > 2) {
 378              		.loc 1 79 5 view .LVU78
  80:big_knob.cpp  ****         return 3;
 379              		.loc 1 80 5 view .LVU79
 380 00ca 00F3F981 		bgt	.L41
  83:big_knob.cpp  ****         return 2;
 381              		.loc 1 83 5 view .LVU80
 382 00ce F7EE007A 		vmov.f32	s15, #1.0e+0
 383 00d2 F4EEE76A 		vcmpe.f32	s13, s15
 384 00d6 F1EE10FA 		vmrs	APSR_nzcv, FPSCR
 385 00da CCBF     		ite	gt
 386 00dc 0123     		movgt	r3, #1
 387 00de 0023     		movle	r3, #0
 388              	.L13:
 389              	.LVL22:
  83:big_knob.cpp  ****         return 2;
 390              		.loc 1 83 5 is_stmt 0 view .LVU81
 391              	.LBE392:
 392              	.LBE400:
 122:big_knob.cpp  ****     if (wf == 1) {
 123:big_knob.cpp  ****         osc2.SetWaveform(Oscillator::WAVE_SIN);
 124:big_knob.cpp  ****     } else if (wf == 2) {
 125:big_knob.cpp  ****         osc2.SetWaveform(Oscillator::WAVE_TRI);
 126:big_knob.cpp  ****     } else if (wf == 3) {
 127:big_knob.cpp  ****         osc2.SetWaveform(Oscillator::WAVE_SAW);
 128:big_knob.cpp  ****     }
 129:big_knob.cpp  ****     osc2.SetFreq(levels[4] * 1000);
 393              		.loc 1 129 17 view .LVU82
 394 00e0 DFED617A 		vldr.32	s15, .L66+24
 395 00e4 99ED040A 		vldr.32	s0, [r9, #16]
 396              	.LBB401:
 397              	.LBB402:
 398              		.loc 7 74 19 view .LVU83
 399 00e8 614C     		ldr	r4, .L66+32
 400              	.LBE402:
ARM GAS  /var/folders/5r/jcdnhfj535b7rff_ygc02qhr0000gn/T//ccwk7XuB.s 			page 19


 401              	.LBE401:
 402              		.loc 1 129 17 view .LVU84
 403 00ea 20EE270A 		vmul.f32	s0, s0, s15
 404              	.LBB404:
 405              	.LBB405:
  63:/Users/ansel/Documents/DaisyExamples/DaisySP//Source/Synthesis/oscillator.h ****     }
 406              		.loc 7 63 34 view .LVU85
 407 00ee 2046     		mov	r0, r4
 408              	.LBE405:
 409              	.LBE404:
 410              	.LBB408:
 411              	.LBB403:
 412              		.loc 7 74 19 view .LVU86
 413 00f0 2370     		strb	r3, [r4]
 414              	.LBE403:
 415              	.LBE408:
 416              		.loc 1 129 5 is_stmt 1 view .LVU87
 417              	.LVL23:
 418              	.LBB409:
 419              	.LBI404:
  60:/Users/ansel/Documents/DaisyExamples/DaisySP//Source/Synthesis/oscillator.h ****     {
 420              		.loc 7 60 17 view .LVU88
 421              	.LBB406:
  62:/Users/ansel/Documents/DaisyExamples/DaisySP//Source/Synthesis/oscillator.h ****         phase_inc_ = CalcPhaseInc(f);
 422              		.loc 7 62 9 view .LVU89
  62:/Users/ansel/Documents/DaisyExamples/DaisySP//Source/Synthesis/oscillator.h ****         phase_inc_ = CalcPhaseInc(f);
 423              		.loc 7 62 20 is_stmt 0 view .LVU90
 424 00f2 84ED020A 		vstr.32	s0, [r4, #8]
  63:/Users/ansel/Documents/DaisyExamples/DaisySP//Source/Synthesis/oscillator.h ****     }
 425              		.loc 7 63 9 is_stmt 1 view .LVU91
  63:/Users/ansel/Documents/DaisyExamples/DaisySP//Source/Synthesis/oscillator.h ****     }
 426              		.loc 7 63 34 is_stmt 0 view .LVU92
 427 00f6 FFF7FEFF 		bl	_ZN7daisysp10Oscillator12CalcPhaseIncEf
 428              	.LVL24:
  63:/Users/ansel/Documents/DaisyExamples/DaisySP//Source/Synthesis/oscillator.h ****     }
 429              		.loc 7 63 34 view .LVU93
 430              	.LBE406:
 431              	.LBE409:
 130:big_knob.cpp  ****     osc2.SetAmp(levels[5] * 0.95);
 432              		.loc 1 130 25 view .LVU94
 433 00fa 99ED057A 		vldr.32	s14, [r9, #20]
 434              	.LBB410:
 435              	.LBB411:
  79:big_knob.cpp  ****     if (val > 2) {
 436              		.loc 1 79 11 view .LVU95
 437 00fe F0EE084A 		vmov.f32	s9, #3.0e+0
 438 0102 D9ED066A 		vldr.32	s13, [r9, #24]
  80:big_knob.cpp  ****         return 3;
 439              		.loc 1 80 5 view .LVU96
 440 0106 B0EE006A 		vmov.f32	s12, #2.0e+0
 441              	.LBE411:
 442              	.LBE410:
 443              		.loc 1 130 25 view .LVU97
 444 010a B7EEC77A 		vcvt.f64.f32	d7, s14
 445              	.LBB417:
 446              	.LBB407:
  63:/Users/ansel/Documents/DaisyExamples/DaisySP//Source/Synthesis/oscillator.h ****     }
ARM GAS  /var/folders/5r/jcdnhfj535b7rff_ygc02qhr0000gn/T//ccwk7XuB.s 			page 20


 447              		.loc 7 63 20 view .LVU98
 448 010e 84ED080A 		vstr.32	s0, [r4, #32]
 449              	.LVL25:
  63:/Users/ansel/Documents/DaisyExamples/DaisySP//Source/Synthesis/oscillator.h ****     }
 450              		.loc 7 63 20 view .LVU99
 451              	.LBE407:
 452              	.LBE417:
 453              		.loc 1 130 5 is_stmt 1 view .LVU100
 454              	.LBB418:
 455              	.LBI418:
  69:/Users/ansel/Documents/DaisyExamples/DaisySP//Source/Synthesis/oscillator.h ****     /** Sets the waveform to be synthesized by the Process() function.
 456              		.loc 7 69 17 view .LVU101
 457              	.LBB419:
  69:/Users/ansel/Documents/DaisyExamples/DaisySP//Source/Synthesis/oscillator.h ****     /** Sets the waveform to be synthesized by the Process() function.
 458              		.loc 7 69 41 view .LVU102
 459              	.LBE419:
 460              	.LBE418:
 461              	.LBB420:
 462              	.LBB412:
  79:big_knob.cpp  ****     if (val > 2) {
 463              		.loc 1 79 11 is_stmt 0 view .LVU103
 464 0112 66EEA46A 		vmul.f32	s13, s13, s9
 465              	.LBE412:
 466              	.LBE420:
 467              		.loc 1 130 27 view .LVU104
 468 0116 9FED4E5B 		vldr.64	d5, .L66
 469              	.LBB421:
 470              	.LBB413:
  80:big_knob.cpp  ****         return 3;
 471              		.loc 1 80 5 view .LVU105
 472 011a F4EEC66A 		vcmpe.f32	s13, s12
 473              	.LBE413:
 474              	.LBE421:
 475              		.loc 1 130 27 view .LVU106
 476 011e 27EE057B 		vmul.f64	d7, d7, d5
 477              	.LBB422:
 478              	.LBB414:
  80:big_knob.cpp  ****         return 3;
 479              		.loc 1 80 5 view .LVU107
 480 0122 F1EE10FA 		vmrs	APSR_nzcv, FPSCR
 481              	.LBE414:
 482              	.LBE422:
 483              		.loc 1 130 16 view .LVU108
 484 0126 B7EEC77B 		vcvt.f32.f64	s14, d7
 485              	.LVL26:
 486              		.loc 1 130 16 view .LVU109
 487 012a 84ED017A 		vstr.32	s14, [r4, #4]
 488              	.LVL27:
 131:big_knob.cpp  **** 
 132:big_knob.cpp  ****     // osc3
 133:big_knob.cpp  ****     wf = pot_switch(levels[6]);
 489              		.loc 1 133 5 is_stmt 1 view .LVU110
 490              	.LBB423:
 491              	.LBI410:
  78:big_knob.cpp  ****     float val = n * 3;
 492              		.loc 1 78 5 view .LVU111
 493              	.LBB415:
ARM GAS  /var/folders/5r/jcdnhfj535b7rff_ygc02qhr0000gn/T//ccwk7XuB.s 			page 21


  79:big_knob.cpp  ****     if (val > 2) {
 494              		.loc 1 79 5 view .LVU112
  80:big_knob.cpp  ****         return 3;
 495              		.loc 1 80 5 view .LVU113
 496 012e 00F3C981 		bgt	.L42
  83:big_knob.cpp  ****         return 2;
 497              		.loc 1 83 5 view .LVU114
 498 0132 F7EE007A 		vmov.f32	s15, #1.0e+0
 499 0136 F4EEE76A 		vcmpe.f32	s13, s15
 500 013a F1EE10FA 		vmrs	APSR_nzcv, FPSCR
 501 013e CCBF     		ite	gt
 502 0140 0123     		movgt	r3, #1
 503 0142 0023     		movle	r3, #0
 504              	.L14:
 505              	.LVL28:
  83:big_knob.cpp  ****         return 2;
 506              		.loc 1 83 5 is_stmt 0 view .LVU115
 507              	.LBE415:
 508              	.LBE423:
 134:big_knob.cpp  ****     if (wf == 1) {
 135:big_knob.cpp  ****         osc3.SetWaveform(Oscillator::WAVE_SIN);
 136:big_knob.cpp  ****     } else if (wf == 2) {
 137:big_knob.cpp  ****         osc3.SetWaveform(Oscillator::WAVE_TRI);
 138:big_knob.cpp  ****     } else if (wf == 3) {
 139:big_knob.cpp  ****         osc3.SetWaveform(Oscillator::WAVE_SAW);
 140:big_knob.cpp  ****     }
 141:big_knob.cpp  ****     osc3.SetFreq(levels[7] * 1000);
 509              		.loc 1 141 17 view .LVU116
 510 0144 DFED487A 		vldr.32	s15, .L66+24
 142:big_knob.cpp  ****     osc3.SetAmp(levels[8] * 0.95);
 143:big_knob.cpp  **** 
 144:big_knob.cpp  ****     // flt1
 145:big_knob.cpp  ****     flt1.SetCutoff(levels[9] * hw.AudioSampleRate() / 2.0f);
 511              		.loc 1 145 19 view .LVU117
 512 0148 B6EE008A 		vmov.f32	s16, #5.0e-1
 141:big_knob.cpp  ****     osc3.SetAmp(levels[8] * 0.95);
 513              		.loc 1 141 17 view .LVU118
 514 014c 99ED070A 		vldr.32	s0, [r9, #28]
 515              	.LBB424:
 516              	.LBB425:
 517              		.loc 7 74 19 view .LVU119
 518 0150 484C     		ldr	r4, .L66+36
 519              	.LBE425:
 520              	.LBE424:
 141:big_knob.cpp  ****     osc3.SetAmp(levels[8] * 0.95);
 521              		.loc 1 141 17 view .LVU120
 522 0152 20EE270A 		vmul.f32	s0, s0, s15
 523              	.LBB427:
 524              	.LBB428:
  63:/Users/ansel/Documents/DaisyExamples/DaisySP//Source/Synthesis/oscillator.h ****     }
 525              		.loc 7 63 34 view .LVU121
 526 0156 2046     		mov	r0, r4
 527              	.LBE428:
 528              	.LBE427:
 529              	.LBB431:
 530              	.LBB426:
 531              		.loc 7 74 19 view .LVU122
ARM GAS  /var/folders/5r/jcdnhfj535b7rff_ygc02qhr0000gn/T//ccwk7XuB.s 			page 22


 532 0158 2370     		strb	r3, [r4]
 533              	.LBE426:
 534              	.LBE431:
 141:big_knob.cpp  ****     osc3.SetAmp(levels[8] * 0.95);
 535              		.loc 1 141 5 is_stmt 1 view .LVU123
 536              	.LVL29:
 537              	.LBB432:
 538              	.LBI427:
  60:/Users/ansel/Documents/DaisyExamples/DaisySP//Source/Synthesis/oscillator.h ****     {
 539              		.loc 7 60 17 view .LVU124
 540              	.LBB429:
  62:/Users/ansel/Documents/DaisyExamples/DaisySP//Source/Synthesis/oscillator.h ****         phase_inc_ = CalcPhaseInc(f);
 541              		.loc 7 62 9 view .LVU125
  62:/Users/ansel/Documents/DaisyExamples/DaisySP//Source/Synthesis/oscillator.h ****         phase_inc_ = CalcPhaseInc(f);
 542              		.loc 7 62 20 is_stmt 0 view .LVU126
 543 015a 84ED020A 		vstr.32	s0, [r4, #8]
  63:/Users/ansel/Documents/DaisyExamples/DaisySP//Source/Synthesis/oscillator.h ****     }
 544              		.loc 7 63 9 is_stmt 1 view .LVU127
  63:/Users/ansel/Documents/DaisyExamples/DaisySP//Source/Synthesis/oscillator.h ****     }
 545              		.loc 7 63 34 is_stmt 0 view .LVU128
 546 015e FFF7FEFF 		bl	_ZN7daisysp10Oscillator12CalcPhaseIncEf
 547              	.LVL30:
  63:/Users/ansel/Documents/DaisyExamples/DaisySP//Source/Synthesis/oscillator.h ****     }
 548              		.loc 7 63 34 view .LVU129
 549              	.LBE429:
 550              	.LBE432:
 142:big_knob.cpp  **** 
 551              		.loc 1 142 25 view .LVU130
 552 0162 99ED087A 		vldr.32	s14, [r9, #32]
 553              		.loc 1 145 28 view .LVU131
 554 0166 D9ED098A 		vldr.32	s17, [r9, #36]
 142:big_knob.cpp  **** 
 555              		.loc 1 142 25 view .LVU132
 556 016a B7EEC77A 		vcvt.f64.f32	d7, s14
 557              		.loc 1 145 50 view .LVU133
 558 016e 4248     		ldr	r0, .L66+40
 559              	.LBB433:
 560              	.LBB430:
  63:/Users/ansel/Documents/DaisyExamples/DaisySP//Source/Synthesis/oscillator.h ****     }
 561              		.loc 7 63 20 view .LVU134
 562 0170 84ED080A 		vstr.32	s0, [r4, #32]
 563              	.LVL31:
  63:/Users/ansel/Documents/DaisyExamples/DaisySP//Source/Synthesis/oscillator.h ****     }
 564              		.loc 7 63 20 view .LVU135
 565              	.LBE430:
 566              	.LBE433:
 142:big_knob.cpp  **** 
 567              		.loc 1 142 5 is_stmt 1 view .LVU136
 568              	.LBB434:
 569              	.LBI434:
  69:/Users/ansel/Documents/DaisyExamples/DaisySP//Source/Synthesis/oscillator.h ****     /** Sets the waveform to be synthesized by the Process() function.
 570              		.loc 7 69 17 view .LVU137
 571              	.LBB435:
  69:/Users/ansel/Documents/DaisyExamples/DaisySP//Source/Synthesis/oscillator.h ****     /** Sets the waveform to be synthesized by the Process() function.
 572              		.loc 7 69 41 view .LVU138
 573              	.LBE435:
 574              	.LBE434:
ARM GAS  /var/folders/5r/jcdnhfj535b7rff_ygc02qhr0000gn/T//ccwk7XuB.s 			page 23


 142:big_knob.cpp  **** 
 575              		.loc 1 142 27 is_stmt 0 view .LVU139
 576 0174 9FED366B 		vldr.64	d6, .L66
 577 0178 27EE067B 		vmul.f64	d7, d7, d6
 142:big_knob.cpp  **** 
 578              		.loc 1 142 16 view .LVU140
 579 017c B7EEC77B 		vcvt.f32.f64	s14, d7
 580              	.LVL32:
 142:big_knob.cpp  **** 
 581              		.loc 1 142 16 view .LVU141
 582 0180 84ED017A 		vstr.32	s14, [r4, #4]
 583              	.LVL33:
 584              		.loc 1 145 5 is_stmt 1 view .LVU142
 585              		.loc 1 145 50 is_stmt 0 view .LVU143
 586 0184 FFF7FEFF 		bl	_ZN5daisy9DaisySeed15AudioSampleRateEv
 587              	.LVL34:
 588              	.LBB436:
 589              	.LBI436:
  23:/Users/ansel/Documents/DaisyExamples/DaisySP//Source/Filters/biquad.h ****     /** Initializes the biquad module.
  24:/Users/ansel/Documents/DaisyExamples/DaisySP//Source/Filters/biquad.h ****         \param sample_rate - The sample rate of the audio engine being run. 
  25:/Users/ansel/Documents/DaisyExamples/DaisySP//Source/Filters/biquad.h ****     */
  26:/Users/ansel/Documents/DaisyExamples/DaisySP//Source/Filters/biquad.h ****     void Init(float sample_rate);
  27:/Users/ansel/Documents/DaisyExamples/DaisySP//Source/Filters/biquad.h **** 
  28:/Users/ansel/Documents/DaisyExamples/DaisySP//Source/Filters/biquad.h **** 
  29:/Users/ansel/Documents/DaisyExamples/DaisySP//Source/Filters/biquad.h ****     /** Filters the input signal
  30:/Users/ansel/Documents/DaisyExamples/DaisySP//Source/Filters/biquad.h ****         \return filtered output
  31:/Users/ansel/Documents/DaisyExamples/DaisySP//Source/Filters/biquad.h ****     */
  32:/Users/ansel/Documents/DaisyExamples/DaisySP//Source/Filters/biquad.h ****     float Process(float in);
  33:/Users/ansel/Documents/DaisyExamples/DaisySP//Source/Filters/biquad.h **** 
  34:/Users/ansel/Documents/DaisyExamples/DaisySP//Source/Filters/biquad.h **** 
  35:/Users/ansel/Documents/DaisyExamples/DaisySP//Source/Filters/biquad.h ****     /** Sets resonance amount
  36:/Users/ansel/Documents/DaisyExamples/DaisySP//Source/Filters/biquad.h ****         \param res : Set filter resonance.
  37:/Users/ansel/Documents/DaisyExamples/DaisySP//Source/Filters/biquad.h ****     */
  38:/Users/ansel/Documents/DaisyExamples/DaisySP//Source/Filters/biquad.h ****     inline void SetRes(float res)
  39:/Users/ansel/Documents/DaisyExamples/DaisySP//Source/Filters/biquad.h ****     {
  40:/Users/ansel/Documents/DaisyExamples/DaisySP//Source/Filters/biquad.h ****         res_ = res;
  41:/Users/ansel/Documents/DaisyExamples/DaisySP//Source/Filters/biquad.h ****         Reset();
  42:/Users/ansel/Documents/DaisyExamples/DaisySP//Source/Filters/biquad.h ****     }
  43:/Users/ansel/Documents/DaisyExamples/DaisySP//Source/Filters/biquad.h **** 
  44:/Users/ansel/Documents/DaisyExamples/DaisySP//Source/Filters/biquad.h **** 
  45:/Users/ansel/Documents/DaisyExamples/DaisySP//Source/Filters/biquad.h ****     /** Sets filter cutoff in Hz
  46:/Users/ansel/Documents/DaisyExamples/DaisySP//Source/Filters/biquad.h ****         \param cutoff : Set filter cutoff.
  47:/Users/ansel/Documents/DaisyExamples/DaisySP//Source/Filters/biquad.h ****     */
  48:/Users/ansel/Documents/DaisyExamples/DaisySP//Source/Filters/biquad.h ****     inline void SetCutoff(float cutoff)
 590              		.loc 9 48 17 is_stmt 1 view .LVU144
 591              	.LBB437:
  49:/Users/ansel/Documents/DaisyExamples/DaisySP//Source/Filters/biquad.h ****     {
  50:/Users/ansel/Documents/DaisyExamples/DaisySP//Source/Filters/biquad.h ****         cutoff_ = cutoff;
 592              		.loc 9 50 9 view .LVU145
 593              	.LBE437:
 594              	.LBE436:
 595              		.loc 1 145 30 is_stmt 0 view .LVU146
 596 0188 68EE808A 		vmul.f32	s17, s17, s0
 597              	.LVL35:
 598              	.LBB440:
 599              	.LBB438:
 600              		.loc 9 50 17 view .LVU147
ARM GAS  /var/folders/5r/jcdnhfj535b7rff_ygc02qhr0000gn/T//ccwk7XuB.s 			page 24


 601 018c 3B4C     		ldr	r4, .L66+44
  51:/Users/ansel/Documents/DaisyExamples/DaisySP//Source/Filters/biquad.h ****         Reset();
 602              		.loc 9 51 14 view .LVU148
 603 018e 2046     		mov	r0, r4
 604              	.LBE438:
 605              	.LBE440:
 606              		.loc 1 145 19 view .LVU149
 607 0190 68EE888A 		vmul.f32	s17, s17, s16
 608              	.LVL36:
 609              	.LBB441:
 610              	.LBB439:
  50:/Users/ansel/Documents/DaisyExamples/DaisySP//Source/Filters/biquad.h ****         Reset();
 611              		.loc 9 50 17 view .LVU150
 612 0194 C4ED018A 		vstr.32	s17, [r4, #4]
 613              		.loc 9 51 9 is_stmt 1 view .LVU151
 614              		.loc 9 51 14 is_stmt 0 view .LVU152
 615 0198 FFF7FEFF 		bl	_ZN7daisysp6Biquad5ResetEv
 616              	.LVL37:
 617              		.loc 9 51 14 view .LVU153
 618              	.LBE439:
 619              	.LBE441:
 146:big_knob.cpp  ****     flt1.SetRes(levels[10] * 0.5);
 620              		.loc 1 146 5 is_stmt 1 view .LVU154
 621              	.LBB442:
 622              	.LBI442:
  38:/Users/ansel/Documents/DaisyExamples/DaisySP//Source/Filters/biquad.h ****     {
 623              		.loc 9 38 17 view .LVU155
 624              	.LBB443:
  40:/Users/ansel/Documents/DaisyExamples/DaisySP//Source/Filters/biquad.h ****         Reset();
 625              		.loc 9 40 9 view .LVU156
 626              	.LBE443:
 627              	.LBE442:
 628              		.loc 1 146 16 is_stmt 0 view .LVU157
 629 019c D9ED0A7A 		vldr.32	s15, [r9, #40]
 630              	.LBB446:
 631              	.LBB444:
  41:/Users/ansel/Documents/DaisyExamples/DaisySP//Source/Filters/biquad.h ****     }
 632              		.loc 9 41 14 view .LVU158
 633 01a0 2046     		mov	r0, r4
 634              	.LBE444:
 635              	.LBE446:
 636              		.loc 1 146 16 view .LVU159
 637 01a2 67EE887A 		vmul.f32	s15, s15, s16
 638              	.LVL38:
 639              	.LBB447:
 640              	.LBB445:
  40:/Users/ansel/Documents/DaisyExamples/DaisySP//Source/Filters/biquad.h ****         Reset();
 641              		.loc 9 40 14 view .LVU160
 642 01a6 C4ED027A 		vstr.32	s15, [r4, #8]
  41:/Users/ansel/Documents/DaisyExamples/DaisySP//Source/Filters/biquad.h ****     }
 643              		.loc 9 41 9 is_stmt 1 view .LVU161
  41:/Users/ansel/Documents/DaisyExamples/DaisySP//Source/Filters/biquad.h ****     }
 644              		.loc 9 41 14 is_stmt 0 view .LVU162
 645 01aa FFF7FEFF 		bl	_ZN7daisysp6Biquad5ResetEv
 646              	.LVL39:
  41:/Users/ansel/Documents/DaisyExamples/DaisySP//Source/Filters/biquad.h ****     }
 647              		.loc 9 41 14 view .LVU163
ARM GAS  /var/folders/5r/jcdnhfj535b7rff_ygc02qhr0000gn/T//ccwk7XuB.s 			page 25


 648              	.LBE445:
 649              	.LBE447:
 147:big_knob.cpp  **** 
 148:big_knob.cpp  ****     // flt2
 149:big_knob.cpp  ****     flt2.SetCutoff(levels[11] * hw.AudioSampleRate() / 2.0f);
 650              		.loc 1 149 5 is_stmt 1 view .LVU164
 651              		.loc 1 149 29 is_stmt 0 view .LVU165
 652 01ae D9ED0B8A 		vldr.32	s17, [r9, #44]
 653              		.loc 1 149 51 view .LVU166
 654 01b2 3148     		ldr	r0, .L66+40
 655 01b4 FFF7FEFF 		bl	_ZN5daisy9DaisySeed15AudioSampleRateEv
 656              	.LVL40:
 657              	.LBB448:
 658              	.LBI448:
  48:/Users/ansel/Documents/DaisyExamples/DaisySP//Source/Filters/biquad.h ****     {
 659              		.loc 9 48 17 is_stmt 1 view .LVU167
 660              	.LBB449:
  50:/Users/ansel/Documents/DaisyExamples/DaisySP//Source/Filters/biquad.h ****         Reset();
 661              		.loc 9 50 9 view .LVU168
 662              	.LBE449:
 663              	.LBE448:
 664              		.loc 1 149 31 is_stmt 0 view .LVU169
 665 01b8 68EE808A 		vmul.f32	s17, s17, s0
 666              	.LVL41:
 667              	.LBB452:
 668              	.LBB450:
  50:/Users/ansel/Documents/DaisyExamples/DaisySP//Source/Filters/biquad.h ****         Reset();
 669              		.loc 9 50 17 view .LVU170
 670 01bc 304C     		ldr	r4, .L66+48
 671              	.LBE450:
 672              	.LBE452:
 673              		.loc 1 149 19 view .LVU171
 674 01be 68EE888A 		vmul.f32	s17, s17, s16
 675              	.LVL42:
 676              	.LBB453:
 677              	.LBB451:
 678              		.loc 9 51 14 view .LVU172
 679 01c2 2046     		mov	r0, r4
  50:/Users/ansel/Documents/DaisyExamples/DaisySP//Source/Filters/biquad.h ****         Reset();
 680              		.loc 9 50 17 view .LVU173
 681 01c4 C4ED018A 		vstr.32	s17, [r4, #4]
 682              		.loc 9 51 9 is_stmt 1 view .LVU174
 683              		.loc 9 51 14 is_stmt 0 view .LVU175
 684 01c8 FFF7FEFF 		bl	_ZN7daisysp6Biquad5ResetEv
 685              	.LVL43:
 686              		.loc 9 51 14 view .LVU176
 687              	.LBE451:
 688              	.LBE453:
 150:big_knob.cpp  ****     flt2.SetRes(levels[12] * 0.5);
 689              		.loc 1 150 5 is_stmt 1 view .LVU177
 690              	.LBB454:
 691              	.LBI454:
  38:/Users/ansel/Documents/DaisyExamples/DaisySP//Source/Filters/biquad.h ****     {
 692              		.loc 9 38 17 view .LVU178
 693              	.LBB455:
  40:/Users/ansel/Documents/DaisyExamples/DaisySP//Source/Filters/biquad.h ****         Reset();
 694              		.loc 9 40 9 view .LVU179
ARM GAS  /var/folders/5r/jcdnhfj535b7rff_ygc02qhr0000gn/T//ccwk7XuB.s 			page 26


 695              	.LBE455:
 696              	.LBE454:
 697              		.loc 1 150 16 is_stmt 0 view .LVU180
 698 01cc D9ED0C7A 		vldr.32	s15, [r9, #48]
 699              	.LBB458:
 700              	.LBB456:
  41:/Users/ansel/Documents/DaisyExamples/DaisySP//Source/Filters/biquad.h ****     }
 701              		.loc 9 41 14 view .LVU181
 702 01d0 2046     		mov	r0, r4
 703              	.LBE456:
 704              	.LBE458:
 705              		.loc 1 150 16 view .LVU182
 706 01d2 67EE887A 		vmul.f32	s15, s15, s16
 707              	.LVL44:
 708              	.LBB459:
 709              	.LBB457:
  40:/Users/ansel/Documents/DaisyExamples/DaisySP//Source/Filters/biquad.h ****         Reset();
 710              		.loc 9 40 14 view .LVU183
 711 01d6 C4ED027A 		vstr.32	s15, [r4, #8]
  41:/Users/ansel/Documents/DaisyExamples/DaisySP//Source/Filters/biquad.h ****     }
 712              		.loc 9 41 9 is_stmt 1 view .LVU184
  41:/Users/ansel/Documents/DaisyExamples/DaisySP//Source/Filters/biquad.h ****     }
 713              		.loc 9 41 14 is_stmt 0 view .LVU185
 714 01da FFF7FEFF 		bl	_ZN7daisysp6Biquad5ResetEv
 715              	.LVL45:
  41:/Users/ansel/Documents/DaisyExamples/DaisySP//Source/Filters/biquad.h ****     }
 716              		.loc 9 41 14 view .LVU186
 717              	.LBE457:
 718              	.LBE459:
 151:big_knob.cpp  **** 
 152:big_knob.cpp  ****     // flt3
 153:big_knob.cpp  ****     flt3.SetCutoff(levels[13] * hw.AudioSampleRate() / 2.0f);
 719              		.loc 1 153 5 is_stmt 1 view .LVU187
 720              		.loc 1 153 29 is_stmt 0 view .LVU188
 721 01de D9ED0D8A 		vldr.32	s17, [r9, #52]
 722              		.loc 1 153 51 view .LVU189
 723 01e2 2548     		ldr	r0, .L66+40
 724 01e4 FFF7FEFF 		bl	_ZN5daisy9DaisySeed15AudioSampleRateEv
 725              	.LVL46:
 726              	.LBB460:
 727              	.LBI460:
  48:/Users/ansel/Documents/DaisyExamples/DaisySP//Source/Filters/biquad.h ****     {
 728              		.loc 9 48 17 is_stmt 1 view .LVU190
 729              	.LBB461:
  50:/Users/ansel/Documents/DaisyExamples/DaisySP//Source/Filters/biquad.h ****         Reset();
 730              		.loc 9 50 9 view .LVU191
 731              	.LBE461:
 732              	.LBE460:
 733              		.loc 1 153 31 is_stmt 0 view .LVU192
 734 01e8 68EE808A 		vmul.f32	s17, s17, s0
 735              	.LVL47:
 736              	.LBB464:
 737              	.LBB462:
  50:/Users/ansel/Documents/DaisyExamples/DaisySP//Source/Filters/biquad.h ****         Reset();
 738              		.loc 9 50 17 view .LVU193
 739 01ec 254C     		ldr	r4, .L66+52
 740              	.LBE462:
ARM GAS  /var/folders/5r/jcdnhfj535b7rff_ygc02qhr0000gn/T//ccwk7XuB.s 			page 27


 741              	.LBE464:
 742              		.loc 1 153 19 view .LVU194
 743 01ee 68EE888A 		vmul.f32	s17, s17, s16
 744              	.LVL48:
 745              	.LBB465:
 746              	.LBB463:
 747              		.loc 9 51 14 view .LVU195
 748 01f2 2046     		mov	r0, r4
  50:/Users/ansel/Documents/DaisyExamples/DaisySP//Source/Filters/biquad.h ****         Reset();
 749              		.loc 9 50 17 view .LVU196
 750 01f4 C4ED018A 		vstr.32	s17, [r4, #4]
 751              		.loc 9 51 9 is_stmt 1 view .LVU197
 752              		.loc 9 51 14 is_stmt 0 view .LVU198
 753 01f8 FFF7FEFF 		bl	_ZN7daisysp6Biquad5ResetEv
 754              	.LVL49:
 755              		.loc 9 51 14 view .LVU199
 756              	.LBE463:
 757              	.LBE465:
 154:big_knob.cpp  ****     flt3.SetRes(levels[14] * 0.5);
 758              		.loc 1 154 5 is_stmt 1 view .LVU200
 759              	.LBB466:
 760              	.LBI466:
  38:/Users/ansel/Documents/DaisyExamples/DaisySP//Source/Filters/biquad.h ****     {
 761              		.loc 9 38 17 view .LVU201
 762              	.LBB467:
  40:/Users/ansel/Documents/DaisyExamples/DaisySP//Source/Filters/biquad.h ****         Reset();
 763              		.loc 9 40 9 view .LVU202
 764              	.LBE467:
 765              	.LBE466:
 766              		.loc 1 154 16 is_stmt 0 view .LVU203
 767 01fc D9ED0E7A 		vldr.32	s15, [r9, #56]
 768              	.LBB470:
 769              	.LBB468:
  41:/Users/ansel/Documents/DaisyExamples/DaisySP//Source/Filters/biquad.h ****     }
 770              		.loc 9 41 14 view .LVU204
 771 0200 2046     		mov	r0, r4
 772              	.LBE468:
 773              	.LBE470:
 774              		.loc 1 154 16 view .LVU205
 775 0202 67EE887A 		vmul.f32	s15, s15, s16
 776              	.LVL50:
 777              	.LBB471:
 778              	.LBB469:
  40:/Users/ansel/Documents/DaisyExamples/DaisySP//Source/Filters/biquad.h ****         Reset();
 779              		.loc 9 40 14 view .LVU206
 780 0206 C4ED027A 		vstr.32	s15, [r4, #8]
  41:/Users/ansel/Documents/DaisyExamples/DaisySP//Source/Filters/biquad.h ****     }
 781              		.loc 9 41 9 is_stmt 1 view .LVU207
  41:/Users/ansel/Documents/DaisyExamples/DaisySP//Source/Filters/biquad.h ****     }
 782              		.loc 9 41 14 is_stmt 0 view .LVU208
 783 020a FFF7FEFF 		bl	_ZN7daisysp6Biquad5ResetEv
 784              	.LVL51:
  41:/Users/ansel/Documents/DaisyExamples/DaisySP//Source/Filters/biquad.h ****     }
 785              		.loc 9 41 14 view .LVU209
 786              	.LBE469:
 787              	.LBE471:
 155:big_knob.cpp  **** 
ARM GAS  /var/folders/5r/jcdnhfj535b7rff_ygc02qhr0000gn/T//ccwk7XuB.s 			page 28


 156:big_knob.cpp  ****     // reverb
 157:big_knob.cpp  ****     reverb.SetFeedback(levels[15] * 0.9);
 788              		.loc 1 157 5 is_stmt 1 view .LVU210
 789              	.LBB472:
 790              	.LBI472:
  42:/Users/ansel/Documents/DaisyExamples/DaisySP//Source/Effects/reverbsc.h ****     /** Initializes the reverb module, and sets the sample_rate at which the Process function will 
  43:/Users/ansel/Documents/DaisyExamples/DaisySP//Source/Effects/reverbsc.h ****         Returns 0 if all good, or 1 if it runs out of delay times exceed maximum allowed.
  44:/Users/ansel/Documents/DaisyExamples/DaisySP//Source/Effects/reverbsc.h ****     */
  45:/Users/ansel/Documents/DaisyExamples/DaisySP//Source/Effects/reverbsc.h ****     int Init(float sample_rate);
  46:/Users/ansel/Documents/DaisyExamples/DaisySP//Source/Effects/reverbsc.h **** 
  47:/Users/ansel/Documents/DaisyExamples/DaisySP//Source/Effects/reverbsc.h ****     /** Process the input through the reverb, and updates values of out1, and out2 with the new pro
  48:/Users/ansel/Documents/DaisyExamples/DaisySP//Source/Effects/reverbsc.h ****     */
  49:/Users/ansel/Documents/DaisyExamples/DaisySP//Source/Effects/reverbsc.h ****     int Process(const float &in1, const float &in2, float *out1, float *out2);
  50:/Users/ansel/Documents/DaisyExamples/DaisySP//Source/Effects/reverbsc.h **** 
  51:/Users/ansel/Documents/DaisyExamples/DaisySP//Source/Effects/reverbsc.h ****     /** controls the reverb time. reverb tail becomes infinite when set to 1.0
  52:/Users/ansel/Documents/DaisyExamples/DaisySP//Source/Effects/reverbsc.h ****         \param fb - sets reverb time. range: 0.0 to 1.0
  53:/Users/ansel/Documents/DaisyExamples/DaisySP//Source/Effects/reverbsc.h ****     */
  54:/Users/ansel/Documents/DaisyExamples/DaisySP//Source/Effects/reverbsc.h ****     inline void SetFeedback(const float &fb) { feedback_ = fb; }
 791              		.loc 8 54 17 view .LVU211
 792              	.LBB473:
 793              		.loc 8 54 48 view .LVU212
 794              	.LBE473:
 795              	.LBE472:
 796              		.loc 1 157 33 is_stmt 0 view .LVU213
 797 020e 99ED0F7A 		vldr.32	s14, [r9, #60]
 798              	.LBB475:
 799              	.LBB474:
 800              		.loc 8 54 58 view .LVU214
 801 0212 1D4C     		ldr	r4, .L66+56
 802              	.LBE474:
 803              	.LBE475:
 804              		.loc 1 157 33 view .LVU215
 805 0214 B7EEC77A 		vcvt.f64.f32	d7, s14
 158:big_knob.cpp  ****     reverb.SetLpFreq(levels[16] * (hw.AudioSampleRate() / 2.0f));
 806              		.loc 1 158 54 view .LVU216
 807 0218 1748     		ldr	r0, .L66+40
 808              		.loc 1 158 31 view .LVU217
 809 021a D9ED108A 		vldr.32	s17, [r9, #64]
 157:big_knob.cpp  ****     reverb.SetLpFreq(levels[16] * (hw.AudioSampleRate() / 2.0f));
 810              		.loc 1 157 35 view .LVU218
 811 021e 9FED0E6B 		vldr.64	d6, .L66+8
 812 0222 27EE067B 		vmul.f64	d7, d7, d6
 813 0226 B7EEC77B 		vcvt.f32.f64	s14, d7
 814 022a 84ED007A 		vstr.32	s14, [r4]
 815              	.LVL52:
 816              		.loc 1 158 5 is_stmt 1 view .LVU219
 817              		.loc 1 158 54 is_stmt 0 view .LVU220
 818 022e FFF7FEFF 		bl	_ZN5daisy9DaisySeed15AudioSampleRateEv
 819              	.LVL53:
 820              	.LBB476:
 821              	.LBI476:
  55:/Users/ansel/Documents/DaisyExamples/DaisySP//Source/Effects/reverbsc.h ****     /** controls the internal dampening filter's cutoff frequency.
  56:/Users/ansel/Documents/DaisyExamples/DaisySP//Source/Effects/reverbsc.h ****         \param freq - low pass frequency. range: 0.0 to sample_rate / 2
  57:/Users/ansel/Documents/DaisyExamples/DaisySP//Source/Effects/reverbsc.h ****     */
  58:/Users/ansel/Documents/DaisyExamples/DaisySP//Source/Effects/reverbsc.h ****     inline void SetLpFreq(const float &freq) { lpfreq_ = freq; }
 822              		.loc 8 58 17 is_stmt 1 view .LVU221
 823              	.LBB477:
ARM GAS  /var/folders/5r/jcdnhfj535b7rff_ygc02qhr0000gn/T//ccwk7XuB.s 			page 29


 824              		.loc 8 58 48 view .LVU222
 825              	.LBE477:
 826              	.LBE476:
 827              		.loc 1 158 57 is_stmt 0 view .LVU223
 828 0232 60EE087A 		vmul.f32	s15, s0, s16
 829              		.loc 1 158 33 view .LVU224
 830 0236 67EEA87A 		vmul.f32	s15, s15, s17
 831              	.LBB479:
 832              	.LBB478:
 833              		.loc 8 58 56 view .LVU225
 834 023a C4ED017A 		vstr.32	s15, [r4, #4]
 835              	.LVL54:
 836              		.loc 8 58 56 view .LVU226
 837              	.LBE478:
 838              	.LBE479:
 159:big_knob.cpp  **** 
 160:big_knob.cpp  ****     // generate samples
 161:big_knob.cpp  ****     for (size_t i = 0; i < size; i++) {
 839              		.loc 1 161 5 is_stmt 1 view .LVU227
 840              	.LBB480:
 841              		.loc 1 161 26 view .LVU228
 842 023e B8F1000F 		cmp	r8, #0
 843 0242 00F0F180 		beq	.L6
 844              		.loc 1 161 17 is_stmt 0 view .LVU229
 845 0246 0025     		movs	r5, #0
 846 0248 104C     		ldr	r4, .L66+60
 847 024a 3DE0     		b	.L36
 848              	.L67:
 849 024c AFF30080 		.align	3
 850              	.L66:
 851 0250 66666666 		.word	1717986918
 852 0254 6666EE3F 		.word	1072588390
 853 0258 CDCCCCCC 		.word	-858993459
 854 025c CCCCEC3F 		.word	1072483532
 855 0260 00000000 		.word	power
 856 0264 18000000 		.word	hw+24
 857 0268 00007A44 		.word	1148846080
 858 026c 00000000 		.word	osc1
 859 0270 00000000 		.word	osc2
 860 0274 00000000 		.word	osc3
 861 0278 00000000 		.word	hw
 862 027c 00000000 		.word	flt1
 863 0280 00000000 		.word	flt2
 864 0284 00000000 		.word	flt3
 865 0288 00000000 		.word	reverb
 866 028c 00000000 		.word	patchbay
 867 0290 00000000 		.word	levels
 868              	.LVL55:
 869              	.L31:
 870              	.LBB481:
 162:big_knob.cpp  ****         float sig1, sig2, sig3, verb_sig;
 163:big_knob.cpp  ****         verb_sig = 0.0f;
 164:big_knob.cpp  ****         sig1 = osc1.Process();
 165:big_knob.cpp  ****         sig2 = osc2.Process();
 166:big_knob.cpp  ****         sig3 = osc3.Process();
 167:big_knob.cpp  **** 
 168:big_knob.cpp  ****         // osc1 out
ARM GAS  /var/folders/5r/jcdnhfj535b7rff_ygc02qhr0000gn/T//ccwk7XuB.s 			page 30


 169:big_knob.cpp  ****         if (patchbay[O_OSC1][I_FLT1]) {
 170:big_knob.cpp  ****             sig1 = flt1.Process(sig1);
 171:big_knob.cpp  ****         } else if (patchbay[O_OSC1][I_FLT2]) {
 172:big_knob.cpp  ****             sig2 = flt2.Process(sig1);
 173:big_knob.cpp  ****         } else if (patchbay[O_OSC1][I_FLT3]) {
 174:big_knob.cpp  ****             sig3 = flt3.Process(sig1);
 175:big_knob.cpp  ****         } else if (patchbay[O_OSC1][I_REVERB]) {
 176:big_knob.cpp  ****             reverb.Process(sig1, sig1, &verb_sig, &verb_sig);
 177:big_knob.cpp  ****         } else if (!patchbay[O_OSC1][I_SPEAKERS]) {
 178:big_knob.cpp  ****             sig1 = 0.0f;
 179:big_knob.cpp  ****         }
 180:big_knob.cpp  **** 
 181:big_knob.cpp  ****         // osc2 out
 182:big_knob.cpp  ****         if (patchbay[O_OSC2][I_FLT1]) {
 183:big_knob.cpp  ****             sig2 = flt1.Process(sig2);
 184:big_knob.cpp  ****         } else if (patchbay[O_OSC2][I_FLT2]) {
 185:big_knob.cpp  ****             sig2 = flt2.Process(sig2);
 186:big_knob.cpp  ****         } else if (patchbay[O_OSC2][I_FLT3]) {
 187:big_knob.cpp  ****             sig2 = flt3.Process(sig2);
 188:big_knob.cpp  ****         } else if (patchbay[O_OSC2][I_REVERB]) {
 189:big_knob.cpp  ****             float sig2_copy = sig2;
 190:big_knob.cpp  ****             reverb.Process(sig2_copy, sig2_copy, &sig2, &sig2);
 191:big_knob.cpp  ****         } else if (!patchbay[O_OSC2][I_SPEAKERS]) {
 192:big_knob.cpp  ****             sig2 = 0.0f;
 193:big_knob.cpp  ****         }
 194:big_knob.cpp  **** 
 195:big_knob.cpp  ****         // osc3 out
 196:big_knob.cpp  ****         if (patchbay[O_OSC3][I_FLT1]) {
 197:big_knob.cpp  ****             sig3 = flt1.Process(sig3);
 198:big_knob.cpp  ****         } else if (patchbay[O_OSC3][I_FLT2]) {
 199:big_knob.cpp  ****             sig3 = flt2.Process(sig3);
 200:big_knob.cpp  ****         } else if (patchbay[O_OSC3][I_FLT3]) {
 201:big_knob.cpp  ****             sig3 = flt3.Process(sig3);
 202:big_knob.cpp  ****         } else if (patchbay[O_OSC3][I_REVERB]) {
 203:big_knob.cpp  ****             float sig3_copy = sig3;
 204:big_knob.cpp  ****             reverb.Process(sig3_copy, sig3_copy, &sig3, &sig3);
 205:big_knob.cpp  ****         } else if (!patchbay[O_OSC3][I_SPEAKERS]) {
 206:big_knob.cpp  ****             sig3 = 0.0f;
 207:big_knob.cpp  ****         }
 208:big_knob.cpp  **** 
 209:big_knob.cpp  ****         // normalize
 210:big_knob.cpp  ****         float sig_out;
 211:big_knob.cpp  ****         if (sig1 && sig2 && sig3) {
 212:big_knob.cpp  ****             sig_out = (sig1 * 0.33) + (sig2 * 0.33) + (sig3 * 0.33);
 213:big_knob.cpp  ****         } else if ((sig1 && sig2) || (sig1 && sig3) || (sig2 && sig3)) {
 871              		.loc 1 213 16 is_stmt 1 view .LVU230
 872              		.loc 1 213 53 is_stmt 0 view .LVU231
 873 0294 F1EE10FA 		vmrs	APSR_nzcv, FPSCR
 874 0298 04D0     		beq	.L35
 875              		.loc 1 213 62 view .LVU232
 876 029a B5EE400A 		vcmp.f32	s0, #0
 877              	.L52:
 878 029e F1EE10FA 		vmrs	APSR_nzcv, FPSCR
 879 02a2 7DD1     		bne	.L33
 880              	.L35:
 214:big_knob.cpp  ****             sig_out = (sig1 * 0.5) + (sig2 * 0.5) + (sig3 * 0.5);
 215:big_knob.cpp  ****         } else {
ARM GAS  /var/folders/5r/jcdnhfj535b7rff_ygc02qhr0000gn/T//ccwk7XuB.s 			page 31


 216:big_knob.cpp  ****             sig_out = sig1 + sig2 + sig3;
 881              		.loc 1 216 13 is_stmt 1 view .LVU233
 882              		.loc 1 216 28 is_stmt 0 view .LVU234
 883 02a4 37EE067A 		vadd.f32	s14, s14, s12
 884              		.loc 1 216 21 view .LVU235
 885 02a8 37EE007A 		vadd.f32	s14, s14, s0
 886              	.LVL56:
 887              	.L34:
 217:big_knob.cpp  ****         }
 218:big_knob.cpp  **** 
 219:big_knob.cpp  ****         out[0][i] = sig_out;
 888              		.loc 1 219 9 is_stmt 1 view .LVU236
 220:big_knob.cpp  ****         out[1][i] = sig_out;
 889              		.loc 1 220 19 is_stmt 0 view .LVU237
 890 02ac D7E90023 		ldrd	r2, r3, [r7]
 219:big_knob.cpp  ****         out[1][i] = sig_out;
 891              		.loc 1 219 19 view .LVU238
 892 02b0 02EB8502 		add	r2, r2, r5, lsl #2
 893              		.loc 1 220 19 view .LVU239
 894 02b4 03EB8503 		add	r3, r3, r5, lsl #2
 895              	.LBE481:
 161:big_knob.cpp  ****         float sig1, sig2, sig3, verb_sig;
 896              		.loc 1 161 5 view .LVU240
 897 02b8 0135     		adds	r5, r5, #1
 898              	.LVL57:
 899              	.LBB517:
 219:big_knob.cpp  ****         out[1][i] = sig_out;
 900              		.loc 1 219 19 view .LVU241
 901 02ba 82ED007A 		vstr.32	s14, [r2]
 902              		.loc 1 220 9 is_stmt 1 view .LVU242
 903              	.LBE517:
 161:big_knob.cpp  ****         float sig1, sig2, sig3, verb_sig;
 904              		.loc 1 161 26 is_stmt 0 view .LVU243
 905 02be A845     		cmp	r8, r5
 906              	.LBB518:
 907              		.loc 1 220 19 view .LVU244
 908 02c0 83ED007A 		vstr.32	s14, [r3]
 909              	.LBE518:
 161:big_knob.cpp  ****         float sig1, sig2, sig3, verb_sig;
 910              		.loc 1 161 5 is_stmt 1 view .LVU245
 911              	.LVL58:
 161:big_knob.cpp  ****         float sig1, sig2, sig3, verb_sig;
 912              		.loc 1 161 26 view .LVU246
 913 02c4 00F0B080 		beq	.L6
 914              	.LVL59:
 915              	.L36:
 916              	.LBB519:
 162:big_knob.cpp  ****         verb_sig = 0.0f;
 917              		.loc 1 162 9 view .LVU247
 163:big_knob.cpp  ****         sig1 = osc1.Process();
 918              		.loc 1 163 9 view .LVU248
 163:big_knob.cpp  ****         sig1 = osc1.Process();
 919              		.loc 1 163 18 is_stmt 0 view .LVU249
 920 02c8 0026     		movs	r6, #0
 164:big_knob.cpp  ****         sig2 = osc2.Process();
 921              		.loc 1 164 28 view .LVU250
 922 02ca 8148     		ldr	r0, .L68+8
ARM GAS  /var/folders/5r/jcdnhfj535b7rff_ygc02qhr0000gn/T//ccwk7XuB.s 			page 32


 163:big_knob.cpp  ****         sig1 = osc1.Process();
 923              		.loc 1 163 18 view .LVU251
 924 02cc 0696     		str	r6, [sp, #24]	@ float
 164:big_knob.cpp  ****         sig2 = osc2.Process();
 925              		.loc 1 164 9 is_stmt 1 view .LVU252
 164:big_knob.cpp  ****         sig2 = osc2.Process();
 926              		.loc 1 164 28 is_stmt 0 view .LVU253
 927 02ce FFF7FEFF 		bl	_ZN7daisysp10Oscillator7ProcessEv
 928              	.LVL60:
 165:big_knob.cpp  ****         sig3 = osc3.Process();
 929              		.loc 1 165 28 view .LVU254
 930 02d2 8048     		ldr	r0, .L68+12
 164:big_knob.cpp  ****         sig2 = osc2.Process();
 931              		.loc 1 164 14 view .LVU255
 932 02d4 8DED030A 		vstr.32	s0, [sp, #12]
 165:big_knob.cpp  ****         sig3 = osc3.Process();
 933              		.loc 1 165 9 is_stmt 1 view .LVU256
 165:big_knob.cpp  ****         sig3 = osc3.Process();
 934              		.loc 1 165 28 is_stmt 0 view .LVU257
 935 02d8 FFF7FEFF 		bl	_ZN7daisysp10Oscillator7ProcessEv
 936              	.LVL61:
 166:big_knob.cpp  **** 
 937              		.loc 1 166 28 view .LVU258
 938 02dc 7E48     		ldr	r0, .L68+16
 165:big_knob.cpp  ****         sig3 = osc3.Process();
 939              		.loc 1 165 14 view .LVU259
 940 02de 8DED040A 		vstr.32	s0, [sp, #16]
 166:big_knob.cpp  **** 
 941              		.loc 1 166 9 is_stmt 1 view .LVU260
 166:big_knob.cpp  **** 
 942              		.loc 1 166 28 is_stmt 0 view .LVU261
 943 02e2 FFF7FEFF 		bl	_ZN7daisysp10Oscillator7ProcessEv
 944              	.LVL62:
 169:big_knob.cpp  ****             sig1 = flt1.Process(sig1);
 945              		.loc 1 169 9 view .LVU262
 946 02e6 2368     		ldr	r3, [r4]
 166:big_knob.cpp  **** 
 947              		.loc 1 166 14 view .LVU263
 948 02e8 8DED050A 		vstr.32	s0, [sp, #20]
 169:big_knob.cpp  ****             sig1 = flt1.Process(sig1);
 949              		.loc 1 169 9 is_stmt 1 view .LVU264
 950 02ec 002B     		cmp	r3, #0
 951 02ee 68D1     		bne	.L54
 171:big_knob.cpp  ****             sig2 = flt2.Process(sig1);
 952              		.loc 1 171 16 view .LVU265
 953 02f0 6368     		ldr	r3, [r4, #4]
 954 02f2 002B     		cmp	r3, #0
 955 02f4 6DD1     		bne	.L55
 173:big_knob.cpp  ****             sig3 = flt3.Process(sig1);
 956              		.loc 1 173 16 view .LVU266
 957 02f6 A368     		ldr	r3, [r4, #8]
 958 02f8 002B     		cmp	r3, #0
 959 02fa 40F09A80 		bne	.L56
 175:big_knob.cpp  ****             reverb.Process(sig1, sig1, &verb_sig, &verb_sig);
 960              		.loc 1 175 16 view .LVU267
 961 02fe 2369     		ldr	r3, [r4, #16]
 962 0300 002B     		cmp	r3, #0
ARM GAS  /var/folders/5r/jcdnhfj535b7rff_ygc02qhr0000gn/T//ccwk7XuB.s 			page 33


 963 0302 40F0B980 		bne	.L57
 177:big_knob.cpp  ****             sig1 = 0.0f;
 964              		.loc 1 177 16 view .LVU268
 965 0306 A369     		ldr	r3, [r4, #24]
 966 0308 03B9     		cbnz	r3, .L17
 178:big_knob.cpp  ****         }
 967              		.loc 1 178 13 view .LVU269
 178:big_knob.cpp  ****         }
 968              		.loc 1 178 18 is_stmt 0 view .LVU270
 969 030a 0396     		str	r6, [sp, #12]	@ float
 970              	.L17:
 182:big_knob.cpp  ****             sig2 = flt1.Process(sig2);
 971              		.loc 1 182 9 is_stmt 1 view .LVU271
 972              	.LBB482:
 973 030c 636A     		ldr	r3, [r4, #36]
 974 030e 002B     		cmp	r3, #0
 975 0310 4FD1     		bne	.L58
 976              	.LBB483:
 184:big_knob.cpp  ****             sig2 = flt2.Process(sig2);
 977              		.loc 1 184 16 is_stmt 0 view .LVU272
 978 0312 A36A     		ldr	r3, [r4, #40]
 979 0314 002B     		cmp	r3, #0
 980 0316 6AD1     		bne	.L59
 981              	.LBB484:
 186:big_knob.cpp  ****             sig2 = flt3.Process(sig2);
 982              		.loc 1 186 16 view .LVU273
 983 0318 E36A     		ldr	r3, [r4, #44]
 984 031a 002B     		cmp	r3, #0
 985 031c 40F09180 		bne	.L60
 986              	.LBB485:
 188:big_knob.cpp  ****             float sig2_copy = sig2;
 987              		.loc 1 188 16 view .LVU274
 988 0320 636B     		ldr	r3, [r4, #52]
 989 0322 002B     		cmp	r3, #0
 990 0324 40F09E80 		bne	.L61
 191:big_knob.cpp  ****             sig2 = 0.0f;
 991              		.loc 1 191 16 is_stmt 1 view .LVU275
 992 0328 E36B     		ldr	r3, [r4, #60]
 993 032a 0BB9     		cbnz	r3, .L22
 192:big_knob.cpp  ****         }
 994              		.loc 1 192 13 view .LVU276
 192:big_knob.cpp  ****         }
 995              		.loc 1 192 18 is_stmt 0 view .LVU277
 996 032c 0023     		movs	r3, #0
 997 032e 0493     		str	r3, [sp, #16]	@ float
 998              	.L22:
 999              	.LBE485:
 1000              	.LBE484:
 1001              	.LBE483:
 1002              	.LBE482:
 196:big_knob.cpp  ****             sig3 = flt1.Process(sig3);
 1003              		.loc 1 196 9 is_stmt 1 view .LVU278
 1004              	.LBB493:
 1005 0330 A36C     		ldr	r3, [r4, #72]
 1006 0332 002B     		cmp	r3, #0
 1007 0334 37D1     		bne	.L62
 1008              	.LBB494:
ARM GAS  /var/folders/5r/jcdnhfj535b7rff_ygc02qhr0000gn/T//ccwk7XuB.s 			page 34


 198:big_knob.cpp  ****             sig3 = flt2.Process(sig3);
 1009              		.loc 1 198 16 is_stmt 0 view .LVU279
 1010 0336 E36C     		ldr	r3, [r4, #76]
 1011 0338 002B     		cmp	r3, #0
 1012 033a 52D1     		bne	.L63
 1013              	.LBB495:
 200:big_knob.cpp  ****             sig3 = flt3.Process(sig3);
 1014              		.loc 1 200 16 view .LVU280
 1015 033c 236D     		ldr	r3, [r4, #80]
 1016 033e 002B     		cmp	r3, #0
 1017 0340 40F08780 		bne	.L64
 1018              	.LBB496:
 202:big_knob.cpp  ****             float sig3_copy = sig3;
 1019              		.loc 1 202 16 view .LVU281
 1020 0344 A36D     		ldr	r3, [r4, #88]
 1021 0346 002B     		cmp	r3, #0
 1022 0348 40F09E80 		bne	.L65
 205:big_knob.cpp  ****             sig3 = 0.0f;
 1023              		.loc 1 205 16 is_stmt 1 view .LVU282
 1024 034c 236E     		ldr	r3, [r4, #96]
 1025 034e 002B     		cmp	r3, #0
 1026 0350 00F08580 		beq	.L43
 1027              	.LBE496:
 1028              	.LBE495:
 1029              	.LBE494:
 197:big_knob.cpp  ****         } else if (patchbay[O_OSC3][I_FLT2]) {
 1030              		.loc 1 197 32 is_stmt 0 view .LVU283
 1031 0354 9DED050A 		vldr.32	s0, [sp, #20]
 1032              	.L27:
 1033              	.LBE493:
 210:big_knob.cpp  ****         if (sig1 && sig2 && sig3) {
 1034              		.loc 1 210 9 is_stmt 1 view .LVU284
 211:big_knob.cpp  ****             sig_out = (sig1 * 0.33) + (sig2 * 0.33) + (sig3 * 0.33);
 1035              		.loc 1 211 9 view .LVU285
 211:big_knob.cpp  ****             sig_out = (sig1 * 0.33) + (sig2 * 0.33) + (sig3 * 0.33);
 1036              		.loc 1 211 13 is_stmt 0 view .LVU286
 1037 0358 9DED036A 		vldr.32	s12, [sp, #12]
 211:big_knob.cpp  ****             sig_out = (sig1 * 0.33) + (sig2 * 0.33) + (sig3 * 0.33);
 1038              		.loc 1 211 21 view .LVU287
 1039 035c 9DED047A 		vldr.32	s14, [sp, #16]
 211:big_knob.cpp  ****             sig_out = (sig1 * 0.33) + (sig2 * 0.33) + (sig3 * 0.33);
 1040              		.loc 1 211 9 view .LVU288
 1041 0360 B5EE406A 		vcmp.f32	s12, #0
 1042 0364 F1EE10FA 		vmrs	APSR_nzcv, FPSCR
 211:big_knob.cpp  ****             sig_out = (sig1 * 0.33) + (sig2 * 0.33) + (sig3 * 0.33);
 1043              		.loc 1 211 18 view .LVU289
 1044 0368 B5EE407A 		vcmp.f32	s14, #0
 211:big_knob.cpp  ****             sig_out = (sig1 * 0.33) + (sig2 * 0.33) + (sig3 * 0.33);
 1045              		.loc 1 211 9 view .LVU290
 1046 036c 92D0     		beq	.L31
 211:big_knob.cpp  ****             sig_out = (sig1 * 0.33) + (sig2 * 0.33) + (sig3 * 0.33);
 1047              		.loc 1 211 18 view .LVU291
 1048 036e F1EE10FA 		vmrs	APSR_nzcv, FPSCR
 211:big_knob.cpp  ****             sig_out = (sig1 * 0.33) + (sig2 * 0.33) + (sig3 * 0.33);
 1049              		.loc 1 211 26 view .LVU292
 1050 0372 B5EE400A 		vcmp.f32	s0, #0
 211:big_knob.cpp  ****             sig_out = (sig1 * 0.33) + (sig2 * 0.33) + (sig3 * 0.33);
ARM GAS  /var/folders/5r/jcdnhfj535b7rff_ygc02qhr0000gn/T//ccwk7XuB.s 			page 35


 1051              		.loc 1 211 18 view .LVU293
 1052 0376 92D0     		beq	.L52
 211:big_knob.cpp  ****             sig_out = (sig1 * 0.33) + (sig2 * 0.33) + (sig3 * 0.33);
 1053              		.loc 1 211 26 view .LVU294
 1054 0378 F1EE10FA 		vmrs	APSR_nzcv, FPSCR
 1055 037c 10D0     		beq	.L33
 212:big_knob.cpp  ****         } else if ((sig1 && sig2) || (sig1 && sig3) || (sig2 && sig3)) {
 1056              		.loc 1 212 13 is_stmt 1 view .LVU295
 212:big_knob.cpp  ****         } else if ((sig1 && sig2) || (sig1 && sig3) || (sig2 && sig3)) {
 1057              		.loc 1 212 45 is_stmt 0 view .LVU296
 1058 037e 9FED525B 		vldr.64	d5, .L68
 1059              	.L53:
 214:big_knob.cpp  ****         } else {
 1060              		.loc 1 214 39 view .LVU297
 1061 0382 B7EEC77A 		vcvt.f64.f32	d7, s14
 214:big_knob.cpp  ****         } else {
 1062              		.loc 1 214 24 view .LVU298
 1063 0386 B7EEC66A 		vcvt.f64.f32	d6, s12
 214:big_knob.cpp  ****         } else {
 1064              		.loc 1 214 54 view .LVU299
 1065 038a B7EEC00A 		vcvt.f64.f32	d0, s0
 214:big_knob.cpp  ****         } else {
 1066              		.loc 1 214 44 view .LVU300
 1067 038e 27EE057B 		vmul.f64	d7, d7, d5
 214:big_knob.cpp  ****         } else {
 1068              		.loc 1 214 36 view .LVU301
 1069 0392 A6EE057B 		vfma.f64	d7, d6, d5
 214:big_knob.cpp  ****         } else {
 1070              		.loc 1 214 51 view .LVU302
 1071 0396 A0EE057B 		vfma.f64	d7, d0, d5
 214:big_knob.cpp  ****         } else {
 1072              		.loc 1 214 21 view .LVU303
 1073 039a B7EEC77B 		vcvt.f32.f64	s14, d7
 1074              	.LVL63:
 214:big_knob.cpp  ****         } else {
 1075              		.loc 1 214 21 view .LVU304
 1076 039e 85E7     		b	.L34
 1077              	.LVL64:
 1078              	.L33:
 214:big_knob.cpp  ****         } else {
 1079              		.loc 1 214 13 is_stmt 1 view .LVU305
 214:big_knob.cpp  ****         } else {
 1080              		.loc 1 214 44 is_stmt 0 view .LVU306
 1081 03a0 B6EE005B 		vmov.f64	d5, #5.0e-1
 1082 03a4 EDE7     		b	.L53
 1083              	.L62:
 1084              	.LBB508:
 197:big_knob.cpp  ****         } else if (patchbay[O_OSC3][I_FLT2]) {
 1085              		.loc 1 197 13 is_stmt 1 view .LVU307
 197:big_knob.cpp  ****         } else if (patchbay[O_OSC3][I_FLT2]) {
 1086              		.loc 1 197 32 is_stmt 0 view .LVU308
 1087 03a6 9DED050A 		vldr.32	s0, [sp, #20]
 1088 03aa 4C48     		ldr	r0, .L68+20
 1089 03ac FFF7FEFF 		bl	_ZN7daisysp6Biquad7ProcessEf
 1090              	.LVL65:
 1091 03b0 D2E7     		b	.L27
 1092              	.L58:
ARM GAS  /var/folders/5r/jcdnhfj535b7rff_ygc02qhr0000gn/T//ccwk7XuB.s 			page 36


 1093              	.LBE508:
 1094              	.LBB509:
 183:big_knob.cpp  ****         } else if (patchbay[O_OSC2][I_FLT2]) {
 1095              		.loc 1 183 13 is_stmt 1 view .LVU309
 183:big_knob.cpp  ****         } else if (patchbay[O_OSC2][I_FLT2]) {
 1096              		.loc 1 183 32 is_stmt 0 view .LVU310
 1097 03b2 9DED040A 		vldr.32	s0, [sp, #16]
 1098 03b6 4948     		ldr	r0, .L68+20
 1099 03b8 FFF7FEFF 		bl	_ZN7daisysp6Biquad7ProcessEf
 1100              	.LVL66:
 183:big_knob.cpp  ****         } else if (patchbay[O_OSC2][I_FLT2]) {
 1101              		.loc 1 183 18 view .LVU311
 1102 03bc 8DED040A 		vstr.32	s0, [sp, #16]
 1103 03c0 B6E7     		b	.L22
 1104              	.L54:
 1105              	.LBE509:
 170:big_knob.cpp  ****         } else if (patchbay[O_OSC1][I_FLT2]) {
 1106              		.loc 1 170 13 is_stmt 1 view .LVU312
 170:big_knob.cpp  ****         } else if (patchbay[O_OSC1][I_FLT2]) {
 1107              		.loc 1 170 32 is_stmt 0 view .LVU313
 1108 03c2 9DED030A 		vldr.32	s0, [sp, #12]
 1109 03c6 4548     		ldr	r0, .L68+20
 1110 03c8 FFF7FEFF 		bl	_ZN7daisysp6Biquad7ProcessEf
 1111              	.LVL67:
 170:big_knob.cpp  ****         } else if (patchbay[O_OSC1][I_FLT2]) {
 1112              		.loc 1 170 18 view .LVU314
 1113 03cc 8DED030A 		vstr.32	s0, [sp, #12]
 1114 03d0 9CE7     		b	.L17
 1115              	.L55:
 172:big_knob.cpp  ****         } else if (patchbay[O_OSC1][I_FLT3]) {
 1116              		.loc 1 172 13 is_stmt 1 view .LVU315
 172:big_knob.cpp  ****         } else if (patchbay[O_OSC1][I_FLT3]) {
 1117              		.loc 1 172 32 is_stmt 0 view .LVU316
 1118 03d2 9DED030A 		vldr.32	s0, [sp, #12]
 1119 03d6 4248     		ldr	r0, .L68+24
 1120 03d8 FFF7FEFF 		bl	_ZN7daisysp6Biquad7ProcessEf
 1121              	.LVL68:
 172:big_knob.cpp  ****         } else if (patchbay[O_OSC1][I_FLT3]) {
 1122              		.loc 1 172 18 view .LVU317
 1123 03dc 8DED040A 		vstr.32	s0, [sp, #16]
 1124 03e0 94E7     		b	.L17
 1125              	.L63:
 1126              	.LBB510:
 1127              	.LBB504:
 199:big_knob.cpp  ****         } else if (patchbay[O_OSC3][I_FLT3]) {
 1128              		.loc 1 199 13 is_stmt 1 view .LVU318
 199:big_knob.cpp  ****         } else if (patchbay[O_OSC3][I_FLT3]) {
 1129              		.loc 1 199 32 is_stmt 0 view .LVU319
 1130 03e2 9DED050A 		vldr.32	s0, [sp, #20]
 1131 03e6 3E48     		ldr	r0, .L68+24
 1132 03e8 FFF7FEFF 		bl	_ZN7daisysp6Biquad7ProcessEf
 1133              	.LVL69:
 1134 03ec B4E7     		b	.L27
 1135              	.L59:
 1136              	.LBE504:
 1137              	.LBE510:
 1138              	.LBB511:
ARM GAS  /var/folders/5r/jcdnhfj535b7rff_ygc02qhr0000gn/T//ccwk7XuB.s 			page 37


 1139              	.LBB490:
 185:big_knob.cpp  ****         } else if (patchbay[O_OSC2][I_FLT3]) {
 1140              		.loc 1 185 13 is_stmt 1 view .LVU320
 185:big_knob.cpp  ****         } else if (patchbay[O_OSC2][I_FLT3]) {
 1141              		.loc 1 185 32 is_stmt 0 view .LVU321
 1142 03ee 9DED040A 		vldr.32	s0, [sp, #16]
 1143 03f2 3B48     		ldr	r0, .L68+24
 1144 03f4 FFF7FEFF 		bl	_ZN7daisysp6Biquad7ProcessEf
 1145              	.LVL70:
 185:big_knob.cpp  ****         } else if (patchbay[O_OSC2][I_FLT3]) {
 1146              		.loc 1 185 18 view .LVU322
 1147 03f8 8DED040A 		vstr.32	s0, [sp, #16]
 1148 03fc 98E7     		b	.L22
 1149              	.LVL71:
 1150              	.L7:
 185:big_knob.cpp  ****         } else if (patchbay[O_OSC2][I_FLT3]) {
 1151              		.loc 1 185 18 view .LVU323
 1152              	.LBE490:
 1153              	.LBE511:
 1154              	.LBE519:
 1155              	.LBE480:
 1156              	.LBE525:
 1157              	.LBE528:
 1158              	.LBB529:
 1159              	.LBB365:
  94:big_knob.cpp  ****             out[0][i] = 0.0f;
 1160              		.loc 1 94 30 is_stmt 1 view .LVU324
 1161 03fe B8F1000F 		cmp	r8, #0
 1162 0402 11D0     		beq	.L6
 1163 0404 4FEA8805 		lsl	r5, r8, #2
  95:big_knob.cpp  ****             out[1][i] = 0.0f;
 1164              		.loc 1 95 18 is_stmt 0 view .LVU325
 1165 0408 D7E90004 		ldrd	r0, r4, [r7]
 1166 040c 04EB8808 		add	r8, r4, r8, lsl #2
 1167              	.LVL72:
  95:big_knob.cpp  ****             out[1][i] = 0.0f;
 1168              		.loc 1 95 18 view .LVU326
 1169 0410 4045     		cmp	r0, r8
 1170 0412 45D2     		bcs	.L44
 1171 0414 4219     		adds	r2, r0, r5
 1172 0416 9442     		cmp	r4, r2
 1173 0418 42D2     		bcs	.L44
 1174              	.LVL73:
 1175              	.L39:
  95:big_knob.cpp  ****             out[1][i] = 0.0f;
 1176              		.loc 1 95 13 is_stmt 1 view .LVU327
  95:big_knob.cpp  ****             out[1][i] = 0.0f;
 1177              		.loc 1 95 23 is_stmt 0 view .LVU328
 1178 041a 0023     		movs	r3, #0
 1179 041c 40F8043B 		str	r3, [r0], #4	@ float
  96:big_knob.cpp  ****         }
 1180              		.loc 1 96 13 is_stmt 1 view .LVU329
  94:big_knob.cpp  ****             out[0][i] = 0.0f;
 1181              		.loc 1 94 30 is_stmt 0 view .LVU330
 1182 0420 9042     		cmp	r0, r2
  96:big_knob.cpp  ****         }
 1183              		.loc 1 96 23 view .LVU331
ARM GAS  /var/folders/5r/jcdnhfj535b7rff_ygc02qhr0000gn/T//ccwk7XuB.s 			page 38


 1184 0422 44F8043B 		str	r3, [r4], #4	@ float
  94:big_knob.cpp  ****             out[0][i] = 0.0f;
 1185              		.loc 1 94 9 is_stmt 1 view .LVU332
  94:big_knob.cpp  ****             out[0][i] = 0.0f;
 1186              		.loc 1 94 30 view .LVU333
 1187 0426 F8D1     		bne	.L39
 1188              	.L6:
  94:big_knob.cpp  ****             out[0][i] = 0.0f;
 1189              		.loc 1 94 30 is_stmt 0 view .LVU334
 1190              	.LBE365:
 1191              	.LBE529:
 221:big_knob.cpp  ****     }
 222:big_knob.cpp  **** }
 1192              		.loc 1 222 1 view .LVU335
 1193 0428 09B0     		add	sp, sp, #36
 1194              		.cfi_remember_state
 1195              		.cfi_def_cfa_offset 44
 1196              		@ sp needed
 1197 042a BDEC028B 		vldm	sp!, {d8}
 1198              		.cfi_restore 80
 1199              		.cfi_restore 81
 1200              		.cfi_def_cfa_offset 36
 1201 042e BDE8F08F 		pop	{r4, r5, r6, r7, r8, r9, r10, fp, pc}
 1202              	.LVL74:
 1203              	.L56:
 1204              		.cfi_restore_state
 1205              	.LBB530:
 1206              	.LBB526:
 1207              	.LBB521:
 1208              	.LBB520:
 174:big_knob.cpp  ****         } else if (patchbay[O_OSC1][I_REVERB]) {
 1209              		.loc 1 174 13 is_stmt 1 view .LVU336
 174:big_knob.cpp  ****         } else if (patchbay[O_OSC1][I_REVERB]) {
 1210              		.loc 1 174 32 is_stmt 0 view .LVU337
 1211 0432 9DED030A 		vldr.32	s0, [sp, #12]
 1212 0436 2B48     		ldr	r0, .L68+28
 1213 0438 FFF7FEFF 		bl	_ZN7daisysp6Biquad7ProcessEf
 1214              	.LVL75:
 174:big_knob.cpp  ****         } else if (patchbay[O_OSC1][I_REVERB]) {
 1215              		.loc 1 174 18 view .LVU338
 1216 043c 8DED050A 		vstr.32	s0, [sp, #20]
 1217 0440 64E7     		b	.L17
 1218              	.L60:
 1219              	.LBB512:
 1220              	.LBB491:
 1221              	.LBB488:
 187:big_knob.cpp  ****         } else if (patchbay[O_OSC2][I_REVERB]) {
 1222              		.loc 1 187 13 is_stmt 1 view .LVU339
 187:big_knob.cpp  ****         } else if (patchbay[O_OSC2][I_REVERB]) {
 1223              		.loc 1 187 32 is_stmt 0 view .LVU340
 1224 0442 9DED040A 		vldr.32	s0, [sp, #16]
 1225 0446 2748     		ldr	r0, .L68+28
 1226 0448 FFF7FEFF 		bl	_ZN7daisysp6Biquad7ProcessEf
 1227              	.LVL76:
 187:big_knob.cpp  ****         } else if (patchbay[O_OSC2][I_REVERB]) {
 1228              		.loc 1 187 18 view .LVU341
 1229 044c 8DED040A 		vstr.32	s0, [sp, #16]
ARM GAS  /var/folders/5r/jcdnhfj535b7rff_ygc02qhr0000gn/T//ccwk7XuB.s 			page 39


 1230 0450 6EE7     		b	.L22
 1231              	.L64:
 1232              	.LBE488:
 1233              	.LBE491:
 1234              	.LBE512:
 1235              	.LBB513:
 1236              	.LBB505:
 1237              	.LBB501:
 201:big_knob.cpp  ****         } else if (patchbay[O_OSC3][I_REVERB]) {
 1238              		.loc 1 201 13 is_stmt 1 view .LVU342
 201:big_knob.cpp  ****         } else if (patchbay[O_OSC3][I_REVERB]) {
 1239              		.loc 1 201 32 is_stmt 0 view .LVU343
 1240 0452 9DED050A 		vldr.32	s0, [sp, #20]
 1241 0456 2348     		ldr	r0, .L68+28
 1242 0458 FFF7FEFF 		bl	_ZN7daisysp6Biquad7ProcessEf
 1243              	.LVL77:
 1244 045c 7CE7     		b	.L27
 1245              	.L43:
 1246              	.LBB498:
 1247 045e 9FED220A 		vldr.32	s0, .L68+32
 1248 0462 79E7     		b	.L27
 1249              	.L61:
 1250              	.LBE498:
 1251              	.LBE501:
 1252              	.LBE505:
 1253              	.LBE513:
 1254              	.LBB514:
 1255              	.LBB492:
 1256              	.LBB489:
 1257              	.LBB487:
 1258              	.LBB486:
 189:big_knob.cpp  ****             reverb.Process(sig2_copy, sig2_copy, &sig2, &sig2);
 1259              		.loc 1 189 13 is_stmt 1 view .LVU344
 189:big_knob.cpp  ****             reverb.Process(sig2_copy, sig2_copy, &sig2, &sig2);
 1260              		.loc 1 189 19 is_stmt 0 view .LVU345
 1261 0464 049B     		ldr	r3, [sp, #16]	@ float
 190:big_knob.cpp  ****         } else if (!patchbay[O_OSC2][I_SPEAKERS]) {
 1262              		.loc 1 190 27 view .LVU346
 1263 0466 07AA     		add	r2, sp, #28
 1264 0468 2048     		ldr	r0, .L68+36
 189:big_knob.cpp  ****             reverb.Process(sig2_copy, sig2_copy, &sig2, &sig2);
 1265              		.loc 1 189 19 view .LVU347
 1266 046a 0793     		str	r3, [sp, #28]	@ float
 190:big_knob.cpp  ****         } else if (!patchbay[O_OSC2][I_SPEAKERS]) {
 1267              		.loc 1 190 13 is_stmt 1 view .LVU348
 190:big_knob.cpp  ****         } else if (!patchbay[O_OSC2][I_SPEAKERS]) {
 1268              		.loc 1 190 27 is_stmt 0 view .LVU349
 1269 046c 04AB     		add	r3, sp, #16
 1270 046e 1146     		mov	r1, r2
 1271 0470 0093     		str	r3, [sp]
 1272 0472 FFF7FEFF 		bl	_ZN7daisysp8ReverbSc7ProcessERKfS2_PfS3_
 1273              	.LVL78:
 1274              	.LBE486:
 1275 0476 5BE7     		b	.L22
 1276              	.L57:
 1277              	.LBE487:
 1278              	.LBE489:
ARM GAS  /var/folders/5r/jcdnhfj535b7rff_ygc02qhr0000gn/T//ccwk7XuB.s 			page 40


 1279              	.LBE492:
 1280              	.LBE514:
 176:big_knob.cpp  ****         } else if (!patchbay[O_OSC1][I_SPEAKERS]) {
 1281              		.loc 1 176 13 is_stmt 1 view .LVU350
 176:big_knob.cpp  ****         } else if (!patchbay[O_OSC1][I_SPEAKERS]) {
 1282              		.loc 1 176 27 is_stmt 0 view .LVU351
 1283 0478 06AB     		add	r3, sp, #24
 1284 047a 03AA     		add	r2, sp, #12
 1285 047c 1B48     		ldr	r0, .L68+36
 1286 047e 1146     		mov	r1, r2
 1287 0480 0093     		str	r3, [sp]
 1288 0482 FFF7FEFF 		bl	_ZN7daisysp8ReverbSc7ProcessERKfS2_PfS3_
 1289              	.LVL79:
 1290 0486 41E7     		b	.L17
 1291              	.L65:
 1292              	.LBB515:
 1293              	.LBB506:
 1294              	.LBB502:
 1295              	.LBB499:
 1296              	.LBB497:
 203:big_knob.cpp  ****             reverb.Process(sig3_copy, sig3_copy, &sig3, &sig3);
 1297              		.loc 1 203 13 is_stmt 1 view .LVU352
 203:big_knob.cpp  ****             reverb.Process(sig3_copy, sig3_copy, &sig3, &sig3);
 1298              		.loc 1 203 19 is_stmt 0 view .LVU353
 1299 0488 059B     		ldr	r3, [sp, #20]	@ float
 204:big_knob.cpp  ****         } else if (!patchbay[O_OSC3][I_SPEAKERS]) {
 1300              		.loc 1 204 27 view .LVU354
 1301 048a 07AA     		add	r2, sp, #28
 1302 048c 1748     		ldr	r0, .L68+36
 203:big_knob.cpp  ****             reverb.Process(sig3_copy, sig3_copy, &sig3, &sig3);
 1303              		.loc 1 203 19 view .LVU355
 1304 048e 0793     		str	r3, [sp, #28]	@ float
 204:big_knob.cpp  ****         } else if (!patchbay[O_OSC3][I_SPEAKERS]) {
 1305              		.loc 1 204 13 is_stmt 1 view .LVU356
 204:big_knob.cpp  ****         } else if (!patchbay[O_OSC3][I_SPEAKERS]) {
 1306              		.loc 1 204 27 is_stmt 0 view .LVU357
 1307 0490 05AB     		add	r3, sp, #20
 1308 0492 1146     		mov	r1, r2
 1309 0494 0093     		str	r3, [sp]
 1310 0496 FFF7FEFF 		bl	_ZN7daisysp8ReverbSc7ProcessERKfS2_PfS3_
 1311              	.LVL80:
 1312              	.LBE497:
 1313              	.LBE499:
 1314              	.LBE502:
 1315              	.LBE506:
 1316              	.LBE515:
 211:big_knob.cpp  ****             sig_out = (sig1 * 0.33) + (sig2 * 0.33) + (sig3 * 0.33);
 1317              		.loc 1 211 29 view .LVU358
 1318 049a 9DED050A 		vldr.32	s0, [sp, #20]
 1319              	.LBB516:
 1320              	.LBB507:
 1321              	.LBB503:
 1322              	.LBB500:
 1323 049e 5BE7     		b	.L27
 1324              	.LVL81:
 1325              	.L44:
 211:big_knob.cpp  ****             sig_out = (sig1 * 0.33) + (sig2 * 0.33) + (sig3 * 0.33);
ARM GAS  /var/folders/5r/jcdnhfj535b7rff_ygc02qhr0000gn/T//ccwk7XuB.s 			page 41


 1326              		.loc 1 211 29 view .LVU359
 1327              	.LBE500:
 1328              	.LBE503:
 1329              	.LBE507:
 1330              	.LBE516:
 1331              	.LBE520:
 1332              	.LBE521:
 1333              	.LBE526:
 1334              	.LBE530:
 1335              	.LBB531:
 1336              	.LBB366:
  95:big_knob.cpp  ****             out[1][i] = 0.0f;
 1337              		.loc 1 95 23 view .LVU360
 1338 04a0 2A46     		mov	r2, r5
 1339 04a2 0021     		movs	r1, #0
 1340 04a4 FFF7FEFF 		bl	memset
 1341              	.LVL82:
  96:big_knob.cpp  ****         }
 1342              		.loc 1 96 23 view .LVU361
 1343 04a8 2A46     		mov	r2, r5
 1344 04aa 0021     		movs	r1, #0
 1345 04ac 2046     		mov	r0, r4
 1346              	.LBE366:
 1347              	.LBE531:
 1348              		.loc 1 222 1 view .LVU362
 1349 04ae 09B0     		add	sp, sp, #36
 1350              		.cfi_remember_state
 1351              		.cfi_def_cfa_offset 44
 1352              		@ sp needed
 1353 04b0 BDEC028B 		vldm	sp!, {d8}
 1354              		.cfi_restore 80
 1355              		.cfi_restore 81
 1356              		.cfi_def_cfa_offset 36
 1357 04b4 BDE8F04F 		pop	{r4, r5, r6, r7, r8, r9, r10, fp, lr}
 1358              		.cfi_restore 14
 1359              		.cfi_restore 11
 1360              		.cfi_restore 10
 1361              		.cfi_restore 9
 1362              		.cfi_restore 8
 1363              		.cfi_restore 7
 1364              		.cfi_restore 6
 1365              		.cfi_restore 5
 1366              		.cfi_restore 4
 1367              		.cfi_def_cfa_offset 0
 1368              	.LVL83:
 1369              	.LBB532:
 1370              	.LBB367:
  96:big_knob.cpp  ****         }
 1371              		.loc 1 96 23 view .LVU363
 1372 04b8 FFF7FEBF 		b	memset
 1373              	.LVL84:
 1374              	.L40:
 1375              		.cfi_restore_state
  96:big_knob.cpp  ****         }
 1376              		.loc 1 96 23 view .LVU364
 1377              	.LBE367:
 1378              	.LBE532:
ARM GAS  /var/folders/5r/jcdnhfj535b7rff_ygc02qhr0000gn/T//ccwk7XuB.s 			page 42


 1379              	.LBB533:
 1380              	.LBB527:
 1381              	.LBB522:
 1382              	.LBB377:
 1383 04bc 0223     		movs	r3, #2
 1384 04be DDE5     		b	.L12
 1385              	.LVL85:
 1386              	.L41:
  96:big_knob.cpp  ****         }
 1387              		.loc 1 96 23 view .LVU365
 1388              	.LBE377:
 1389              	.LBE522:
 1390              	.LBB523:
 1391              	.LBB393:
 1392 04c0 0223     		movs	r3, #2
 1393 04c2 0DE6     		b	.L13
 1394              	.LVL86:
 1395              	.L42:
  96:big_knob.cpp  ****         }
 1396              		.loc 1 96 23 view .LVU366
 1397              	.LBE393:
 1398              	.LBE523:
 1399              	.LBB524:
 1400              	.LBB416:
 1401 04c4 0223     		movs	r3, #2
 1402 04c6 3DE6     		b	.L14
 1403              	.L69:
 1404              		.align	3
 1405              	.L68:
 1406 04c8 1F85EB51 		.word	1374389535
 1407 04cc B81ED53F 		.word	1070931640
 1408 04d0 00000000 		.word	osc1
 1409 04d4 00000000 		.word	osc2
 1410 04d8 00000000 		.word	osc3
 1411 04dc 00000000 		.word	flt1
 1412 04e0 00000000 		.word	flt2
 1413 04e4 00000000 		.word	flt3
 1414 04e8 00000000 		.word	0
 1415 04ec 00000000 		.word	reverb
 1416              	.LBE416:
 1417              	.LBE524:
 1418              	.LBE527:
 1419              	.LBE533:
 1420              		.cfi_endproc
 1421              	.LFE4778:
 1423              		.section	.text._ZN7daisysp10Oscillator4InitEf,"axG",%progbits,_ZN7daisysp10Oscillator4InitEf,comda
 1424              		.align	1
 1425              		.p2align 2,,3
 1426              		.weak	_ZN7daisysp10Oscillator4InitEf
 1427              		.syntax unified
 1428              		.thumb
 1429              		.thumb_func
 1431              	_ZN7daisysp10Oscillator4InitEf:
 1432              	.LVL87:
 1433              	.LFB4204:
  42:/Users/ansel/Documents/DaisyExamples/DaisySP//Source/Synthesis/oscillator.h ****     {
 1434              		.loc 7 42 10 is_stmt 1 view -0
ARM GAS  /var/folders/5r/jcdnhfj535b7rff_ygc02qhr0000gn/T//ccwk7XuB.s 			page 43


 1435              		.cfi_startproc
 1436              		@ args = 0, pretend = 0, frame = 0
 1437              		@ frame_needed = 0, uses_anonymous_args = 0
  44:/Users/ansel/Documents/DaisyExamples/DaisySP//Source/Synthesis/oscillator.h ****         sr_recip_  = 1.0f / sample_rate;
 1438              		.loc 7 44 9 view .LVU368
  42:/Users/ansel/Documents/DaisyExamples/DaisySP//Source/Synthesis/oscillator.h ****     {
 1439              		.loc 7 42 10 is_stmt 0 view .LVU369
 1440 0000 F0EE407A 		vmov.f32	s15, s0
  47:/Users/ansel/Documents/DaisyExamples/DaisySP//Source/Synthesis/oscillator.h ****         pw_        = 0.5f;
 1441              		.loc 7 47 20 view .LVU370
 1442 0004 4FF07C53 		mov	r3, #1056964608
  45:/Users/ansel/Documents/DaisyExamples/DaisySP//Source/Synthesis/oscillator.h ****         freq_      = 100.0f;
 1443              		.loc 7 45 27 view .LVU371
 1444 0008 F7EE006A 		vmov.f32	s13, #1.0e+0
  50:/Users/ansel/Documents/DaisyExamples/DaisySP//Source/Synthesis/oscillator.h ****         phase_inc_ = CalcPhaseInc(freq_);
 1445              		.loc 7 50 20 view .LVU372
 1446 000c 0022     		movs	r2, #0
  46:/Users/ansel/Documents/DaisyExamples/DaisySP//Source/Synthesis/oscillator.h ****         amp_       = 0.5f;
 1447              		.loc 7 46 20 view .LVU373
 1448 000e 9FED0D0A 		vldr.32	s0, .L72
 1449              	.LVL88:
  49:/Users/ansel/Documents/DaisyExamples/DaisySP//Source/Synthesis/oscillator.h ****         phase_     = 0.0f;
 1450              		.loc 7 49 20 view .LVU374
 1451 0012 0D49     		ldr	r1, .L72+4
  45:/Users/ansel/Documents/DaisyExamples/DaisySP//Source/Synthesis/oscillator.h ****         freq_      = 100.0f;
 1452              		.loc 7 45 27 view .LVU375
 1453 0014 86EEA77A 		vdiv.f32	s14, s13, s15
  47:/Users/ansel/Documents/DaisyExamples/DaisySP//Source/Synthesis/oscillator.h ****         pw_        = 0.5f;
 1454              		.loc 7 47 20 view .LVU376
 1455 0018 4360     		str	r3, [r0, #4]	@ float
  48:/Users/ansel/Documents/DaisyExamples/DaisySP//Source/Synthesis/oscillator.h ****         pw_rad_    = pw_ * TWOPI_F;
 1456              		.loc 7 48 20 view .LVU377
 1457 001a C360     		str	r3, [r0, #12]	@ float
  50:/Users/ansel/Documents/DaisyExamples/DaisySP//Source/Synthesis/oscillator.h ****         phase_inc_ = CalcPhaseInc(freq_);
 1458              		.loc 7 50 20 view .LVU378
 1459 001c C261     		str	r2, [r0, #28]	@ float
  44:/Users/ansel/Documents/DaisyExamples/DaisySP//Source/Synthesis/oscillator.h ****         sr_recip_  = 1.0f / sample_rate;
 1460              		.loc 7 44 20 view .LVU379
 1461 001e C0ED057A 		vstr.32	s15, [r0, #20]
  45:/Users/ansel/Documents/DaisyExamples/DaisySP//Source/Synthesis/oscillator.h ****         freq_      = 100.0f;
 1462              		.loc 7 45 9 is_stmt 1 view .LVU380
  46:/Users/ansel/Documents/DaisyExamples/DaisySP//Source/Synthesis/oscillator.h ****         amp_       = 0.5f;
 1463              		.loc 7 46 20 is_stmt 0 view .LVU381
 1464 0022 80ED020A 		vstr.32	s0, [r0, #8]
  49:/Users/ansel/Documents/DaisyExamples/DaisySP//Source/Synthesis/oscillator.h ****         phase_     = 0.0f;
 1465              		.loc 7 49 20 view .LVU382
 1466 0026 0161     		str	r1, [r0, #16]	@ float
  42:/Users/ansel/Documents/DaisyExamples/DaisySP//Source/Synthesis/oscillator.h ****     {
 1467              		.loc 7 42 10 view .LVU383
 1468 0028 10B5     		push	{r4, lr}
 1469              		.cfi_def_cfa_offset 8
 1470              		.cfi_offset 4, -8
 1471              		.cfi_offset 14, -4
  42:/Users/ansel/Documents/DaisyExamples/DaisySP//Source/Synthesis/oscillator.h ****     {
 1472              		.loc 7 42 10 view .LVU384
 1473 002a 0446     		mov	r4, r0
  45:/Users/ansel/Documents/DaisyExamples/DaisySP//Source/Synthesis/oscillator.h ****         freq_      = 100.0f;
ARM GAS  /var/folders/5r/jcdnhfj535b7rff_ygc02qhr0000gn/T//ccwk7XuB.s 			page 44


 1474              		.loc 7 45 20 view .LVU385
 1475 002c 80ED067A 		vstr.32	s14, [r0, #24]
  46:/Users/ansel/Documents/DaisyExamples/DaisySP//Source/Synthesis/oscillator.h ****         amp_       = 0.5f;
 1476              		.loc 7 46 9 is_stmt 1 view .LVU386
  47:/Users/ansel/Documents/DaisyExamples/DaisySP//Source/Synthesis/oscillator.h ****         pw_        = 0.5f;
 1477              		.loc 7 47 9 view .LVU387
  48:/Users/ansel/Documents/DaisyExamples/DaisySP//Source/Synthesis/oscillator.h ****         pw_rad_    = pw_ * TWOPI_F;
 1478              		.loc 7 48 9 view .LVU388
  49:/Users/ansel/Documents/DaisyExamples/DaisySP//Source/Synthesis/oscillator.h ****         phase_     = 0.0f;
 1479              		.loc 7 49 9 view .LVU389
  50:/Users/ansel/Documents/DaisyExamples/DaisySP//Source/Synthesis/oscillator.h ****         phase_inc_ = CalcPhaseInc(freq_);
 1480              		.loc 7 50 9 view .LVU390
  51:/Users/ansel/Documents/DaisyExamples/DaisySP//Source/Synthesis/oscillator.h ****         waveform_  = WAVE_SIN;
 1481              		.loc 7 51 9 view .LVU391
  51:/Users/ansel/Documents/DaisyExamples/DaisySP//Source/Synthesis/oscillator.h ****         waveform_  = WAVE_SIN;
 1482              		.loc 7 51 34 is_stmt 0 view .LVU392
 1483 0030 FFF7FEFF 		bl	_ZN7daisysp10Oscillator12CalcPhaseIncEf
 1484              	.LVL89:
  52:/Users/ansel/Documents/DaisyExamples/DaisySP//Source/Synthesis/oscillator.h ****         eoc_       = true;
 1485              		.loc 7 52 20 view .LVU393
 1486 0034 0022     		movs	r2, #0
  54:/Users/ansel/Documents/DaisyExamples/DaisySP//Source/Synthesis/oscillator.h ****     }
 1487              		.loc 7 54 20 view .LVU394
 1488 0036 40F20113 		movw	r3, #257
  51:/Users/ansel/Documents/DaisyExamples/DaisySP//Source/Synthesis/oscillator.h ****         waveform_  = WAVE_SIN;
 1489              		.loc 7 51 20 view .LVU395
 1490 003a 84ED080A 		vstr.32	s0, [r4, #32]
  52:/Users/ansel/Documents/DaisyExamples/DaisySP//Source/Synthesis/oscillator.h ****         eoc_       = true;
 1491              		.loc 7 52 9 is_stmt 1 view .LVU396
  52:/Users/ansel/Documents/DaisyExamples/DaisySP//Source/Synthesis/oscillator.h ****         eoc_       = true;
 1492              		.loc 7 52 20 is_stmt 0 view .LVU397
 1493 003e 2270     		strb	r2, [r4]
  53:/Users/ansel/Documents/DaisyExamples/DaisySP//Source/Synthesis/oscillator.h ****         eor_       = true;
 1494              		.loc 7 53 9 is_stmt 1 view .LVU398
  54:/Users/ansel/Documents/DaisyExamples/DaisySP//Source/Synthesis/oscillator.h ****     }
 1495              		.loc 7 54 9 view .LVU399
  54:/Users/ansel/Documents/DaisyExamples/DaisySP//Source/Synthesis/oscillator.h ****     }
 1496              		.loc 7 54 20 is_stmt 0 view .LVU400
 1497 0040 A385     		strh	r3, [r4, #44]	@ movhi
  55:/Users/ansel/Documents/DaisyExamples/DaisySP//Source/Synthesis/oscillator.h **** 
 1498              		.loc 7 55 5 view .LVU401
 1499 0042 10BD     		pop	{r4, pc}
 1500              	.LVL90:
 1501              	.L73:
  55:/Users/ansel/Documents/DaisyExamples/DaisySP//Source/Synthesis/oscillator.h **** 
 1502              		.loc 7 55 5 view .LVU402
 1503              		.align	2
 1504              	.L72:
 1505 0044 0000C842 		.word	1120403456
 1506 0048 DB0F4940 		.word	1078530011
 1507              		.cfi_endproc
 1508              	.LFE4204:
 1510              		.section	.text._Z10pot_switchf,"ax",%progbits
 1511              		.align	1
 1512              		.p2align 2,,3
 1513              		.global	_Z10pot_switchf
 1514              		.syntax unified
ARM GAS  /var/folders/5r/jcdnhfj535b7rff_ygc02qhr0000gn/T//ccwk7XuB.s 			page 45


 1515              		.thumb
 1516              		.thumb_func
 1518              	_Z10pot_switchf:
 1519              	.LVL91:
 1520              	.LFB4777:
  78:big_knob.cpp  ****     float val = n * 3;
 1521              		.loc 1 78 25 is_stmt 1 view -0
 1522              		.cfi_startproc
 1523              		@ args = 0, pretend = 0, frame = 0
 1524              		@ frame_needed = 0, uses_anonymous_args = 0
 1525              		@ link register save eliminated.
  79:big_knob.cpp  ****     if (val > 2) {
 1526              		.loc 1 79 5 view .LVU404
  79:big_knob.cpp  ****     if (val > 2) {
 1527              		.loc 1 79 11 is_stmt 0 view .LVU405
 1528 0000 B0EE087A 		vmov.f32	s14, #3.0e+0
  80:big_knob.cpp  ****         return 3;
 1529              		.loc 1 80 5 view .LVU406
 1530 0004 F0EE007A 		vmov.f32	s15, #2.0e+0
  79:big_knob.cpp  ****     if (val > 2) {
 1531              		.loc 1 79 11 view .LVU407
 1532 0008 20EE070A 		vmul.f32	s0, s0, s14
 1533              	.LVL92:
  80:big_knob.cpp  ****         return 3;
 1534              		.loc 1 80 5 is_stmt 1 view .LVU408
 1535 000c B4EEE70A 		vcmpe.f32	s0, s15
 1536 0010 F1EE10FA 		vmrs	APSR_nzcv, FPSCR
 1537 0014 09DC     		bgt	.L76
  83:big_knob.cpp  ****         return 2;
 1538              		.loc 1 83 5 view .LVU409
 1539 0016 F7EE007A 		vmov.f32	s15, #1.0e+0
  86:big_knob.cpp  **** }
 1540              		.loc 1 86 12 is_stmt 0 view .LVU410
 1541 001a B4EEE70A 		vcmpe.f32	s0, s15
 1542 001e F1EE10FA 		vmrs	APSR_nzcv, FPSCR
 1543 0022 CCBF     		ite	gt
 1544 0024 0220     		movgt	r0, #2
 1545 0026 0120     		movle	r0, #1
 1546 0028 7047     		bx	lr
 1547              	.L76:
  81:big_knob.cpp  ****     }
 1548              		.loc 1 81 16 view .LVU411
 1549 002a 0320     		movs	r0, #3
  87:big_knob.cpp  **** 
 1550              		.loc 1 87 1 view .LVU412
 1551 002c 7047     		bx	lr
 1552              		.cfi_endproc
 1553              	.LFE4777:
 1555 002e 00BF     		.section	.text.startup.main,"ax",%progbits
 1556              		.align	1
 1557              		.p2align 2,,3
 1558              		.global	main
 1559              		.syntax unified
 1560              		.thumb
 1561              		.thumb_func
 1563              	main:
 1564              	.LFB4779:
ARM GAS  /var/folders/5r/jcdnhfj535b7rff_ygc02qhr0000gn/T//ccwk7XuB.s 			page 46


 223:big_knob.cpp  **** 
 224:big_knob.cpp  **** int main(void) {
 1565              		.loc 1 224 16 is_stmt 1 view -0
 1566              		.cfi_startproc
 1567              		@ args = 0, pretend = 0, frame = 136
 1568              		@ frame_needed = 0, uses_anonymous_args = 0
 225:big_knob.cpp  ****     hw.Init();
 1569              		.loc 1 225 5 view .LVU414
 224:big_knob.cpp  ****     hw.Init();
 1570              		.loc 1 224 16 is_stmt 0 view .LVU415
 1571 0000 2DE9F043 		push	{r4, r5, r6, r7, r8, r9, lr}
 1572              		.cfi_def_cfa_offset 28
 1573              		.cfi_offset 4, -28
 1574              		.cfi_offset 5, -24
 1575              		.cfi_offset 6, -20
 1576              		.cfi_offset 7, -16
 1577              		.cfi_offset 8, -12
 1578              		.cfi_offset 9, -8
 1579              		.cfi_offset 14, -4
 1580              		.loc 1 225 12 view .LVU416
 1581 0004 0021     		movs	r1, #0
 224:big_knob.cpp  ****     hw.Init();
 1582              		.loc 1 224 16 view .LVU417
 1583 0006 A5B0     		sub	sp, sp, #148
 1584              		.cfi_def_cfa_offset 176
 1585              		.loc 1 225 12 view .LVU418
 1586 0008 8E48     		ldr	r0, .L85
 1587 000a 0225     		movs	r5, #2
 1588 000c FFF7FEFF 		bl	_ZN5daisy9DaisySeed4InitEb
 1589              	.LVL93:
 226:big_knob.cpp  **** 
 227:big_knob.cpp  ****     // Oscillators setup
 228:big_knob.cpp  ****     osc1.Init(hw.AudioSampleRate());
 1590              		.loc 1 228 5 is_stmt 1 view .LVU419
 1591              		.loc 1 228 14 is_stmt 0 view .LVU420
 1592 0010 8C48     		ldr	r0, .L85
 1593 0012 FFF7FEFF 		bl	_ZN5daisy9DaisySeed15AudioSampleRateEv
 1594              	.LVL94:
 1595 0016 8C48     		ldr	r0, .L85+4
 1596 0018 FFF7FEFF 		bl	_ZN7daisysp10Oscillator4InitEf
 1597              	.LVL95:
 229:big_knob.cpp  ****     osc2.Init(hw.AudioSampleRate());
 1598              		.loc 1 229 5 is_stmt 1 view .LVU421
 1599              		.loc 1 229 14 is_stmt 0 view .LVU422
 1600 001c 8948     		ldr	r0, .L85
 1601 001e FFF7FEFF 		bl	_ZN5daisy9DaisySeed15AudioSampleRateEv
 1602              	.LVL96:
 1603 0022 8A48     		ldr	r0, .L85+8
 1604 0024 FFF7FEFF 		bl	_ZN7daisysp10Oscillator4InitEf
 1605              	.LVL97:
 230:big_knob.cpp  ****     osc3.Init(hw.AudioSampleRate());
 1606              		.loc 1 230 5 is_stmt 1 view .LVU423
 1607              		.loc 1 230 14 is_stmt 0 view .LVU424
 1608 0028 8648     		ldr	r0, .L85
 1609 002a FFF7FEFF 		bl	_ZN5daisy9DaisySeed15AudioSampleRateEv
 1610              	.LVL98:
 1611 002e 8848     		ldr	r0, .L85+12
ARM GAS  /var/folders/5r/jcdnhfj535b7rff_ygc02qhr0000gn/T//ccwk7XuB.s 			page 47


 1612 0030 FFF7FEFF 		bl	_ZN7daisysp10Oscillator4InitEf
 1613              	.LVL99:
 231:big_knob.cpp  **** 
 232:big_knob.cpp  ****     // Filters setup
 233:big_knob.cpp  ****     flt1.Init(hw.AudioSampleRate());
 1614              		.loc 1 233 5 is_stmt 1 view .LVU425
 1615              		.loc 1 233 14 is_stmt 0 view .LVU426
 1616 0034 8348     		ldr	r0, .L85
 1617 0036 FFF7FEFF 		bl	_ZN5daisy9DaisySeed15AudioSampleRateEv
 1618              	.LVL100:
 1619 003a 8648     		ldr	r0, .L85+16
 1620 003c FFF7FEFF 		bl	_ZN7daisysp6Biquad4InitEf
 1621              	.LVL101:
 234:big_knob.cpp  ****     flt2.Init(hw.AudioSampleRate());
 1622              		.loc 1 234 5 is_stmt 1 view .LVU427
 1623              		.loc 1 234 14 is_stmt 0 view .LVU428
 1624 0040 8048     		ldr	r0, .L85
 1625 0042 FFF7FEFF 		bl	_ZN5daisy9DaisySeed15AudioSampleRateEv
 1626              	.LVL102:
 1627 0046 8448     		ldr	r0, .L85+20
 1628 0048 FFF7FEFF 		bl	_ZN7daisysp6Biquad4InitEf
 1629              	.LVL103:
 235:big_knob.cpp  ****     flt3.Init(hw.AudioSampleRate());
 1630              		.loc 1 235 5 is_stmt 1 view .LVU429
 1631              		.loc 1 235 14 is_stmt 0 view .LVU430
 1632 004c 7D48     		ldr	r0, .L85
 1633 004e FFF7FEFF 		bl	_ZN5daisy9DaisySeed15AudioSampleRateEv
 1634              	.LVL104:
 1635 0052 8248     		ldr	r0, .L85+24
 1636 0054 FFF7FEFF 		bl	_ZN7daisysp6Biquad4InitEf
 1637              	.LVL105:
 236:big_knob.cpp  **** 
 237:big_knob.cpp  ****     // FXs setup
 238:big_knob.cpp  ****     reverb.Init(hw.AudioSampleRate());
 1638              		.loc 1 238 5 is_stmt 1 view .LVU431
 1639              		.loc 1 238 16 is_stmt 0 view .LVU432
 1640 0058 7A48     		ldr	r0, .L85
 1641 005a FFF7FEFF 		bl	_ZN5daisy9DaisySeed15AudioSampleRateEv
 1642              	.LVL106:
 1643 005e 8048     		ldr	r0, .L85+28
 1644 0060 FFF7FEFF 		bl	_ZN7daisysp8ReverbSc4InitEf
 1645              	.LVL107:
 239:big_knob.cpp  **** 
 240:big_knob.cpp  ****     // adc setup
 241:big_knob.cpp  ****     AdcChannelConfig adc_config[NUM_MUXES];
 1646              		.loc 1 241 5 is_stmt 1 view .LVU433
 242:big_knob.cpp  ****     adc_config[0].InitMux(A0, 8, D1, D2, D3);
 1647              		.loc 1 242 5 view .LVU434
 1648              		.loc 1 242 5 is_stmt 0 view .LVU435
 1649 0064 40F60232 		movw	r2, #2818
 1650 0068 40F60221 		movw	r1, #2562
 1651 006c 40F60213 		movw	r3, #2306
 1652 0070 ADF81020 		strh	r2, [sp, #16]	@ movhi
 1653              		.loc 1 242 26 view .LVU436
 1654 0074 13A8     		add	r0, sp, #76
 1655 0076 ADF80C50 		strh	r5, [sp, #12]	@ movhi
 1656              	.LVL108:
ARM GAS  /var/folders/5r/jcdnhfj535b7rff_ygc02qhr0000gn/T//ccwk7XuB.s 			page 48


 1657              		.loc 1 242 26 view .LVU437
 1658 007a 0822     		movs	r2, #8
 1659 007c ADF80430 		strh	r3, [sp, #4]	@ movhi
 243:big_knob.cpp  ****     adc_config[1].InitMux(A1, 8, D4, D5, D6);
 244:big_knob.cpp  ****     adc_config[2].InitMux(A2, 8, D7, D8, D9);
 245:big_knob.cpp  ****     adc_config[3].InitMux(A3, 8, D10, D11, D12);
 246:big_knob.cpp  ****     hw.adc.Init(adc_config, NUM_MUXES);
 247:big_knob.cpp  ****     hw.adc.Start();
 248:big_knob.cpp  **** 
 249:big_knob.cpp  ****     // GPIO setup
 250:big_knob.cpp  ****     power.Init(D0, GPIO::Mode::INPUT, GPIO::Pull::NOPULL);
 1660              		.loc 1 250 15 view .LVU438
 1661 0080 0024     		movs	r4, #0
 242:big_knob.cpp  ****     adc_config[0].InitMux(A0, 8, D1, D2, D3);
 1662              		.loc 1 242 26 view .LVU439
 1663 0082 049B     		ldr	r3, [sp, #16]
 1664 0084 ADF80010 		strh	r1, [sp]	@ movhi
 1665 0088 0399     		ldr	r1, [sp, #12]
 1666 008a FFF7FEFF 		bl	_ZN5daisy16AdcChannelConfig7InitMuxE12dsy_gpio_pinjS1_S1_S1_
 1667              	.LVL109:
 243:big_knob.cpp  ****     adc_config[1].InitMux(A1, 8, D4, D5, D6);
 1668              		.loc 1 243 5 is_stmt 1 view .LVU440
 243:big_knob.cpp  ****     adc_config[1].InitMux(A1, 8, D4, D5, D6);
 1669              		.loc 1 243 5 is_stmt 0 view .LVU441
 1670 008e 40F20321 		movw	r1, #515
 1671 0092 4FF44072 		mov	r2, #768
 1672 0096 40F60203 		movw	r3, #2050
 243:big_knob.cpp  ****     adc_config[1].InitMux(A1, 8, D4, D5, D6);
 1673              		.loc 1 243 26 view .LVU442
 1674 009a ADF80010 		strh	r1, [sp]	@ movhi
 1675 009e 40F60241 		movw	r1, #3074
 1676 00a2 ADF81C20 		strh	r2, [sp, #28]	@ movhi
 1677              	.LVL110:
 243:big_knob.cpp  ****     adc_config[1].InitMux(A1, 8, D4, D5, D6);
 1678              		.loc 1 243 26 view .LVU443
 1679 00a6 0DF15D00 		add	r0, sp, #93
 1680 00aa ADF82030 		strh	r3, [sp, #32]	@ movhi
 1681              	.LVL111:
 243:big_knob.cpp  ****     adc_config[1].InitMux(A1, 8, D4, D5, D6);
 1682              		.loc 1 243 26 view .LVU444
 1683 00ae 0822     		movs	r2, #8
 1684 00b0 089B     		ldr	r3, [sp, #32]
 1685 00b2 ADF80410 		strh	r1, [sp, #4]	@ movhi
 1686 00b6 0799     		ldr	r1, [sp, #28]
 1687 00b8 FFF7FEFF 		bl	_ZN5daisy16AdcChannelConfig7InitMuxE12dsy_gpio_pinjS1_S1_S1_
 1688              	.LVL112:
 244:big_knob.cpp  ****     adc_config[3].InitMux(A3, 8, D10, D11, D12);
 1689              		.loc 1 244 5 is_stmt 1 view .LVU445
 244:big_knob.cpp  ****     adc_config[3].InitMux(A3, 8, D10, D11, D12);
 1690              		.loc 1 244 5 is_stmt 0 view .LVU446
 1691 00bc 40F60631 		movw	r1, #2822
 1692 00c0 40F20112 		movw	r2, #257
 1693 00c4 40F60623 		movw	r3, #2566
 244:big_knob.cpp  ****     adc_config[3].InitMux(A3, 8, D10, D11, D12);
 1694              		.loc 1 244 26 view .LVU447
 1695 00c8 ADF80010 		strh	r1, [sp]	@ movhi
 1696 00cc 40F20141 		movw	r1, #1025
ARM GAS  /var/folders/5r/jcdnhfj535b7rff_ygc02qhr0000gn/T//ccwk7XuB.s 			page 49


 1697 00d0 ADF82C20 		strh	r2, [sp, #44]	@ movhi
 1698              	.LVL113:
 244:big_knob.cpp  ****     adc_config[3].InitMux(A3, 8, D10, D11, D12);
 1699              		.loc 1 244 26 view .LVU448
 1700 00d4 0DF16E00 		add	r0, sp, #110
 1701 00d8 ADF83030 		strh	r3, [sp, #48]	@ movhi
 1702              	.LVL114:
 244:big_knob.cpp  ****     adc_config[3].InitMux(A3, 8, D10, D11, D12);
 1703              		.loc 1 244 26 view .LVU449
 1704 00dc 0822     		movs	r2, #8
 1705 00de 0C9B     		ldr	r3, [sp, #48]
 1706 00e0 ADF80410 		strh	r1, [sp, #4]	@ movhi
 1707 00e4 0B99     		ldr	r1, [sp, #44]
 1708 00e6 FFF7FEFF 		bl	_ZN5daisy16AdcChannelConfig7InitMuxE12dsy_gpio_pinjS1_S1_S1_
 1709              	.LVL115:
 245:big_knob.cpp  ****     hw.adc.Init(adc_config, NUM_MUXES);
 1710              		.loc 1 245 5 is_stmt 1 view .LVU450
 245:big_knob.cpp  ****     hw.adc.Init(adc_config, NUM_MUXES);
 1711              		.loc 1 245 5 is_stmt 0 view .LVU451
 1712 00ea 40F60101 		movw	r1, #2049
 1713 00ee 4FF4E062 		mov	r2, #1792
 1714 00f2 40F20153 		movw	r3, #1281
 245:big_knob.cpp  ****     hw.adc.Init(adc_config, NUM_MUXES);
 1715              		.loc 1 245 26 view .LVU452
 1716 00f6 ADF80010 		strh	r1, [sp]	@ movhi
 1717 00fa 40F60111 		movw	r1, #2305
 1718 00fe ADF83C20 		strh	r2, [sp, #60]	@ movhi
 1719              	.LVL116:
 245:big_knob.cpp  ****     hw.adc.Init(adc_config, NUM_MUXES);
 1720              		.loc 1 245 26 view .LVU453
 1721 0102 0DF17F00 		add	r0, sp, #127
 1722 0106 ADF84030 		strh	r3, [sp, #64]	@ movhi
 1723              	.LVL117:
 245:big_knob.cpp  ****     hw.adc.Init(adc_config, NUM_MUXES);
 1724              		.loc 1 245 26 view .LVU454
 1725 010a 0822     		movs	r2, #8
 1726 010c 109B     		ldr	r3, [sp, #64]
 1727 010e ADF80410 		strh	r1, [sp, #4]	@ movhi
 1728 0112 0F99     		ldr	r1, [sp, #60]
 1729 0114 FFF7FEFF 		bl	_ZN5daisy16AdcChannelConfig7InitMuxE12dsy_gpio_pinjS1_S1_S1_
 1730              	.LVL118:
 246:big_knob.cpp  ****     hw.adc.Start();
 1731              		.loc 1 246 5 is_stmt 1 view .LVU455
 246:big_knob.cpp  ****     hw.adc.Start();
 1732              		.loc 1 246 16 is_stmt 0 view .LVU456
 1733 0118 0423     		movs	r3, #4
 1734 011a 13A9     		add	r1, sp, #76
 1735 011c 5148     		ldr	r0, .L85+32
 1736 011e 1A46     		mov	r2, r3
 1737 0120 DFF8B091 		ldr	r9, .L85+144
 1738 0124 FFF7FEFF 		bl	_ZN5daisy9AdcHandle4InitEPNS_16AdcChannelConfigEjNS0_12OverSamplingE
 1739              	.LVL119:
 247:big_knob.cpp  **** 
 1740              		.loc 1 247 5 is_stmt 1 view .LVU457
 247:big_knob.cpp  **** 
 1741              		.loc 1 247 17 is_stmt 0 view .LVU458
 1742 0128 4E48     		ldr	r0, .L85+32
ARM GAS  /var/folders/5r/jcdnhfj535b7rff_ygc02qhr0000gn/T//ccwk7XuB.s 			page 50


 1743 012a FFF7FEFF 		bl	_ZN5daisy9AdcHandle5StartEv
 1744              	.LVL120:
 1745              		.loc 1 250 5 is_stmt 1 view .LVU459
 1746              		.loc 1 250 15 is_stmt 0 view .LVU460
 1747 012e 4E49     		ldr	r1, .L85+36
 1748 0130 2346     		mov	r3, r4
 1749 0132 2246     		mov	r2, r4
 1750 0134 0968     		ldr	r1, [r1]
 1751 0136 4D48     		ldr	r0, .L85+40
 1752 0138 0094     		str	r4, [sp]
 1753 013a FFF7FEFF 		bl	_ZN5daisy4GPIO4InitENS_3PinENS0_4ModeENS0_4PullENS0_5SpeedE
 1754              	.LVL121:
 251:big_knob.cpp  **** 
 252:big_knob.cpp  ****     // init patchbay outs and ins
 253:big_knob.cpp  ****     outPins[O_OSC1].Init(D13, GPIO::Mode::OUTPUT, GPIO::Pull::NOPULL);
 1755              		.loc 1 253 5 is_stmt 1 view .LVU461
 1756              		.loc 1 253 25 is_stmt 0 view .LVU462
 1757 013e 4C49     		ldr	r1, .L85+44
 1758 0140 2346     		mov	r3, r4
 1759 0142 0122     		movs	r2, #1
 1760 0144 0968     		ldr	r1, [r1]
 1761 0146 4B48     		ldr	r0, .L85+48
 1762 0148 0094     		str	r4, [sp]
 1763 014a FFF7FEFF 		bl	_ZN5daisy4GPIO4InitENS_3PinENS0_4ModeENS0_4PullENS0_5SpeedE
 1764              	.LVL122:
 254:big_knob.cpp  ****     outPins[O_OSC2].Init(D14, GPIO::Mode::OUTPUT, GPIO::Pull::NOPULL);
 1765              		.loc 1 254 5 is_stmt 1 view .LVU463
 1766              		.loc 1 254 25 is_stmt 0 view .LVU464
 1767 014e 4A49     		ldr	r1, .L85+52
 1768 0150 2346     		mov	r3, r4
 1769 0152 0122     		movs	r2, #1
 1770 0154 0968     		ldr	r1, [r1]
 1771 0156 4948     		ldr	r0, .L85+56
 1772 0158 0094     		str	r4, [sp]
 1773 015a FFF7FEFF 		bl	_ZN5daisy4GPIO4InitENS_3PinENS0_4ModeENS0_4PullENS0_5SpeedE
 1774              	.LVL123:
 255:big_knob.cpp  ****     outPins[O_OSC2].Init(D19, GPIO::Mode::OUTPUT, GPIO::Pull::NOPULL);
 1775              		.loc 1 255 5 is_stmt 1 view .LVU465
 1776              		.loc 1 255 25 is_stmt 0 view .LVU466
 1777 015e 4849     		ldr	r1, .L85+60
 1778 0160 2346     		mov	r3, r4
 1779 0162 0122     		movs	r2, #1
 1780 0164 0968     		ldr	r1, [r1]
 1781 0166 4548     		ldr	r0, .L85+56
 1782 0168 0094     		str	r4, [sp]
 1783 016a FFF7FEFF 		bl	_ZN5daisy4GPIO4InitENS_3PinENS0_4ModeENS0_4PullENS0_5SpeedE
 1784              	.LVL124:
 256:big_knob.cpp  ****     outPins[O_FLT1].Init(D20, GPIO::Mode::OUTPUT, GPIO::Pull::NOPULL);
 1785              		.loc 1 256 5 is_stmt 1 view .LVU467
 1786              		.loc 1 256 25 is_stmt 0 view .LVU468
 1787 016e 4549     		ldr	r1, .L85+64
 1788 0170 2346     		mov	r3, r4
 1789 0172 0122     		movs	r2, #1
 1790 0174 0968     		ldr	r1, [r1]
 1791 0176 4448     		ldr	r0, .L85+68
 1792 0178 0094     		str	r4, [sp]
 1793 017a FFF7FEFF 		bl	_ZN5daisy4GPIO4InitENS_3PinENS0_4ModeENS0_4PullENS0_5SpeedE
ARM GAS  /var/folders/5r/jcdnhfj535b7rff_ygc02qhr0000gn/T//ccwk7XuB.s 			page 51


 1794              	.LVL125:
 257:big_knob.cpp  ****     outPins[O_FLT2].Init(D21, GPIO::Mode::OUTPUT, GPIO::Pull::NOPULL);
 1795              		.loc 1 257 5 is_stmt 1 view .LVU469
 1796              		.loc 1 257 25 is_stmt 0 view .LVU470
 1797 017e 4349     		ldr	r1, .L85+72
 1798 0180 2346     		mov	r3, r4
 1799 0182 0122     		movs	r2, #1
 1800 0184 0968     		ldr	r1, [r1]
 1801 0186 4248     		ldr	r0, .L85+76
 1802 0188 0094     		str	r4, [sp]
 1803 018a FFF7FEFF 		bl	_ZN5daisy4GPIO4InitENS_3PinENS0_4ModeENS0_4PullENS0_5SpeedE
 1804              	.LVL126:
 258:big_knob.cpp  ****     outPins[O_FLT3].Init(D22, GPIO::Mode::OUTPUT, GPIO::Pull::NOPULL);
 1805              		.loc 1 258 5 is_stmt 1 view .LVU471
 1806              		.loc 1 258 25 is_stmt 0 view .LVU472
 1807 018e 4149     		ldr	r1, .L85+80
 1808 0190 2346     		mov	r3, r4
 1809 0192 0122     		movs	r2, #1
 1810 0194 0968     		ldr	r1, [r1]
 1811 0196 4048     		ldr	r0, .L85+84
 1812 0198 0094     		str	r4, [sp]
 1813 019a FFF7FEFF 		bl	_ZN5daisy4GPIO4InitENS_3PinENS0_4ModeENS0_4PullENS0_5SpeedE
 1814              	.LVL127:
 259:big_knob.cpp  ****     outPins[O_REVERB].Init(D23, GPIO::Mode::OUTPUT, GPIO::Pull::NOPULL);
 1815              		.loc 1 259 5 is_stmt 1 view .LVU473
 1816              		.loc 1 259 27 is_stmt 0 view .LVU474
 1817 019e 3F49     		ldr	r1, .L85+88
 1818 01a0 2346     		mov	r3, r4
 1819 01a2 0122     		movs	r2, #1
 1820 01a4 0968     		ldr	r1, [r1]
 1821 01a6 3E48     		ldr	r0, .L85+92
 1822 01a8 0094     		str	r4, [sp]
 1823 01aa FFF7FEFF 		bl	_ZN5daisy4GPIO4InitENS_3PinENS0_4ModeENS0_4PullENS0_5SpeedE
 1824              	.LVL128:
 260:big_knob.cpp  **** 
 261:big_knob.cpp  ****     inPins[I_FLT1].Init(D24, GPIO::Mode::INPUT, GPIO::Pull::PULLDOWN);
 1825              		.loc 1 261 5 is_stmt 1 view .LVU475
 1826              		.loc 1 261 24 is_stmt 0 view .LVU476
 1827 01ae 3D49     		ldr	r1, .L85+96
 1828 01b0 2B46     		mov	r3, r5
 1829 01b2 2246     		mov	r2, r4
 1830 01b4 0968     		ldr	r1, [r1]
 1831 01b6 3C48     		ldr	r0, .L85+100
 1832 01b8 0094     		str	r4, [sp]
 1833 01ba FFF7FEFF 		bl	_ZN5daisy4GPIO4InitENS_3PinENS0_4ModeENS0_4PullENS0_5SpeedE
 1834              	.LVL129:
 262:big_knob.cpp  ****     inPins[I_FLT2].Init(D25, GPIO::Mode::INPUT, GPIO::Pull::PULLDOWN);
 1835              		.loc 1 262 5 is_stmt 1 view .LVU477
 1836              		.loc 1 262 24 is_stmt 0 view .LVU478
 1837 01be 3B49     		ldr	r1, .L85+104
 1838 01c0 2B46     		mov	r3, r5
 1839 01c2 2246     		mov	r2, r4
 1840 01c4 0968     		ldr	r1, [r1]
 1841 01c6 3A48     		ldr	r0, .L85+108
 1842 01c8 0094     		str	r4, [sp]
 1843 01ca FFF7FEFF 		bl	_ZN5daisy4GPIO4InitENS_3PinENS0_4ModeENS0_4PullENS0_5SpeedE
 1844              	.LVL130:
ARM GAS  /var/folders/5r/jcdnhfj535b7rff_ygc02qhr0000gn/T//ccwk7XuB.s 			page 52


 263:big_knob.cpp  ****     inPins[I_FLT3].Init(D26, GPIO::Mode::INPUT, GPIO::Pull::PULLDOWN);
 1845              		.loc 1 263 5 is_stmt 1 view .LVU479
 1846              		.loc 1 263 24 is_stmt 0 view .LVU480
 1847 01ce 3949     		ldr	r1, .L85+112
 1848 01d0 2B46     		mov	r3, r5
 1849 01d2 2246     		mov	r2, r4
 1850 01d4 0968     		ldr	r1, [r1]
 1851 01d6 3848     		ldr	r0, .L85+116
 1852 01d8 0094     		str	r4, [sp]
 1853 01da FFF7FEFF 		bl	_ZN5daisy4GPIO4InitENS_3PinENS0_4ModeENS0_4PullENS0_5SpeedE
 1854              	.LVL131:
 264:big_knob.cpp  ****     inPins[I_REVERB].Init(D27, GPIO::Mode::INPUT, GPIO::Pull::PULLDOWN);
 1855              		.loc 1 264 5 is_stmt 1 view .LVU481
 1856              		.loc 1 264 26 is_stmt 0 view .LVU482
 1857 01de 3749     		ldr	r1, .L85+120
 1858 01e0 2B46     		mov	r3, r5
 1859 01e2 2246     		mov	r2, r4
 1860 01e4 0968     		ldr	r1, [r1]
 1861 01e6 3648     		ldr	r0, .L85+124
 1862 01e8 0094     		str	r4, [sp]
 1863 01ea FFF7FEFF 		bl	_ZN5daisy4GPIO4InitENS_3PinENS0_4ModeENS0_4PullENS0_5SpeedE
 1864              	.LVL132:
 265:big_knob.cpp  ****     inPins[I_SPEAKERS].Init(D28, GPIO::Mode::INPUT, GPIO::Pull::PULLDOWN);
 1865              		.loc 1 265 5 is_stmt 1 view .LVU483
 1866              		.loc 1 265 28 is_stmt 0 view .LVU484
 1867 01ee 3549     		ldr	r1, .L85+128
 1868 01f0 3548     		ldr	r0, .L85+132
 1869 01f2 2B46     		mov	r3, r5
 1870 01f4 0968     		ldr	r1, [r1]
 1871 01f6 2246     		mov	r2, r4
 1872 01f8 0094     		str	r4, [sp]
 1873 01fa FFF7FEFF 		bl	_ZN5daisy4GPIO4InitENS_3PinENS0_4ModeENS0_4PullENS0_5SpeedE
 1874              	.LVL133:
 266:big_knob.cpp  **** 
 267:big_knob.cpp  ****     // Audio start
 268:big_knob.cpp  ****     hw.StartAudio(AudioCallback);
 1875              		.loc 1 268 5 is_stmt 1 view .LVU485
 1876              		.loc 1 268 18 is_stmt 0 view .LVU486
 1877 01fe 3349     		ldr	r1, .L85+136
 1878 0200 1048     		ldr	r0, .L85
 1879 0202 334E     		ldr	r6, .L85+140
 1880 0204 FFF7FEFF 		bl	_ZN5daisy9DaisySeed10StartAudioEPFvPKPKfPPfjE
 1881              	.LVL134:
 1882              	.L81:
 269:big_knob.cpp  **** 
 270:big_knob.cpp  ****     while (1) {
 1883              		.loc 1 270 5 is_stmt 1 view .LVU487
 1884              	.LBB534:
 271:big_knob.cpp  ****         // read patchbay connections
 272:big_knob.cpp  ****         for (int i = 0; i < NUM_OUT_PINS; i++) {
 1885              		.loc 1 272 9 view .LVU488
 1886              	.LBB535:
 1887              		.loc 1 272 27 view .LVU489
 1888 0208 1A4F     		ldr	r7, .L85+48
 1889 020a DFF8CC80 		ldr	r8, .L85+148
 1890              	.LVL135:
 1891              	.L80:
ARM GAS  /var/folders/5r/jcdnhfj535b7rff_ygc02qhr0000gn/T//ccwk7XuB.s 			page 53


 1892              	.LBB536:
 273:big_knob.cpp  ****             outPins[i].Write(1);
 1893              		.loc 1 273 13 view .LVU490
 1894              		.loc 1 273 29 is_stmt 0 view .LVU491
 1895 020e 0121     		movs	r1, #1
 1896 0210 3846     		mov	r0, r7
 1897 0212 254C     		ldr	r4, .L85+100
 1898 0214 4546     		mov	r5, r8
 1899 0216 FFF7FEFF 		bl	_ZN5daisy4GPIO5WriteEb
 1900              	.LVL136:
 274:big_knob.cpp  ****             for (int j = 0; j < NUM_IN_PINS; j++) {
 1901              		.loc 1 274 13 is_stmt 1 view .LVU492
 1902              	.LBB537:
 1903              		.loc 1 274 31 view .LVU493
 1904              	.L79:
 275:big_knob.cpp  ****                 if (inPins[j].Read()) {
 1905              		.loc 1 275 17 view .LVU494
 1906              		.loc 1 275 35 is_stmt 0 view .LVU495
 1907 021a 2046     		mov	r0, r4
 274:big_knob.cpp  ****             for (int j = 0; j < NUM_IN_PINS; j++) {
 1908              		.loc 1 274 31 view .LVU496
 1909 021c 1434     		adds	r4, r4, #20
 1910              		.loc 1 275 35 view .LVU497
 1911 021e FFF7FEFF 		bl	_ZN5daisy4GPIO4ReadEv
 1912              	.LVL137:
 1913              		.loc 1 275 17 view .LVU498
 1914 0222 45F8040F 		str	r0, [r5, #4]!
 274:big_knob.cpp  ****             for (int j = 0; j < NUM_IN_PINS; j++) {
 1915              		.loc 1 274 13 is_stmt 1 view .LVU499
 274:big_knob.cpp  ****             for (int j = 0; j < NUM_IN_PINS; j++) {
 1916              		.loc 1 274 31 view .LVU500
 1917 0226 A642     		cmp	r6, r4
 1918 0228 F7D1     		bne	.L79
 1919              	.LBE537:
 276:big_knob.cpp  ****                     patchbay[i][j] = 1;
 277:big_knob.cpp  ****                 } else {
 278:big_knob.cpp  ****                     patchbay[i][j] = 0;
 279:big_knob.cpp  ****                 }
 280:big_knob.cpp  ****             }
 281:big_knob.cpp  ****             outPins[i].Write(0);
 1920              		.loc 1 281 13 discriminator 2 view .LVU501
 1921              		.loc 1 281 29 is_stmt 0 discriminator 2 view .LVU502
 1922 022a 3846     		mov	r0, r7
 1923              	.LBE536:
 272:big_knob.cpp  ****             outPins[i].Write(1);
 1924              		.loc 1 272 27 discriminator 2 view .LVU503
 1925 022c 1437     		adds	r7, r7, #20
 1926              	.LBB538:
 1927              		.loc 1 281 29 discriminator 2 view .LVU504
 1928 022e 0021     		movs	r1, #0
 1929              	.LBE538:
 272:big_knob.cpp  ****             outPins[i].Write(1);
 1930              		.loc 1 272 27 discriminator 2 view .LVU505
 1931 0230 08F12408 		add	r8, r8, #36
 1932              	.LBB539:
 1933              		.loc 1 281 29 discriminator 2 view .LVU506
 1934 0234 FFF7FEFF 		bl	_ZN5daisy4GPIO5WriteEb
ARM GAS  /var/folders/5r/jcdnhfj535b7rff_ygc02qhr0000gn/T//ccwk7XuB.s 			page 54


 1935              	.LVL138:
 1936              	.LBE539:
 272:big_knob.cpp  ****             outPins[i].Write(1);
 1937              		.loc 1 272 9 is_stmt 1 discriminator 2 view .LVU507
 272:big_knob.cpp  ****             outPins[i].Write(1);
 1938              		.loc 1 272 27 discriminator 2 view .LVU508
 1939 0238 4F45     		cmp	r7, r9
 1940 023a E8D1     		bne	.L80
 1941              	.LBE535:
 282:big_knob.cpp  ****         }
 283:big_knob.cpp  **** 
 284:big_knob.cpp  ****         System::Delay(100);
 1942              		.loc 1 284 9 view .LVU509
 1943              		.loc 1 284 22 is_stmt 0 view .LVU510
 1944 023c 6420     		movs	r0, #100
 1945 023e FFF7FEFF 		bl	_ZN5daisy6System5DelayEm
 1946              	.LVL139:
 1947              	.LBE534:
 270:big_knob.cpp  ****         // read patchbay connections
 1948              		.loc 1 270 5 is_stmt 1 view .LVU511
 285:big_knob.cpp  ****     }
 1949              		.loc 1 285 5 is_stmt 0 view .LVU512
 1950 0242 E1E7     		b	.L81
 1951              	.L86:
 1952              		.align	2
 1953              	.L85:
 1954 0244 00000000 		.word	hw
 1955 0248 00000000 		.word	osc1
 1956 024c 00000000 		.word	osc2
 1957 0250 00000000 		.word	osc3
 1958 0254 00000000 		.word	flt1
 1959 0258 00000000 		.word	flt2
 1960 025c 00000000 		.word	flt3
 1961 0260 00000000 		.word	reverb
 1962 0264 18000000 		.word	hw+24
 1963 0268 00000000 		.word	_ZN5daisy4seedL2D0E
 1964 026c 00000000 		.word	power
 1965 0270 00000000 		.word	_ZN5daisy4seedL3D13E
 1966 0274 00000000 		.word	outPins
 1967 0278 00000000 		.word	_ZN5daisy4seedL3D14E
 1968 027c 14000000 		.word	outPins+20
 1969 0280 00000000 		.word	_ZN5daisy4seedL3D19E
 1970 0284 00000000 		.word	_ZN5daisy4seedL3D20E
 1971 0288 64000000 		.word	outPins+100
 1972 028c 00000000 		.word	_ZN5daisy4seedL3D21E
 1973 0290 78000000 		.word	outPins+120
 1974 0294 00000000 		.word	_ZN5daisy4seedL3D22E
 1975 0298 8C000000 		.word	outPins+140
 1976 029c 00000000 		.word	_ZN5daisy4seedL3D23E
 1977 02a0 DC000000 		.word	outPins+220
 1978 02a4 00000000 		.word	_ZN5daisy4seedL3D24E
 1979 02a8 00000000 		.word	inPins
 1980 02ac 00000000 		.word	_ZN5daisy4seedL3D25E
 1981 02b0 14000000 		.word	inPins+20
 1982 02b4 00000000 		.word	_ZN5daisy4seedL3D26E
 1983 02b8 28000000 		.word	inPins+40
 1984 02bc 00000000 		.word	_ZN5daisy4seedL3D27E
ARM GAS  /var/folders/5r/jcdnhfj535b7rff_ygc02qhr0000gn/T//ccwk7XuB.s 			page 55


 1985 02c0 50000000 		.word	inPins+80
 1986 02c4 00000000 		.word	_ZN5daisy4seedL3D28E
 1987 02c8 78000000 		.word	inPins+120
 1988 02cc 00000000 		.word	_Z13AudioCallbackPKPKfPPfj
 1989 02d0 B4000000 		.word	inPins+180
 1990 02d4 04010000 		.word	outPins+260
 1991 02d8 FCFFFFFF 		.word	patchbay-4
 1992              		.cfi_endproc
 1993              	.LFE4779:
 1995              		.section	.text.startup._GLOBAL__sub_I_hw,"ax",%progbits
 1996              		.align	1
 1997              		.p2align 2,,3
 1998              		.syntax unified
 1999              		.thumb
 2000              		.thumb_func
 2002              	_GLOBAL__sub_I_hw:
 2003              	.LFB5364:
 286:big_knob.cpp  **** }
 2004              		.loc 1 286 1 is_stmt 1 view -0
 2005              		.cfi_startproc
 2006              		@ args = 0, pretend = 0, frame = 0
 2007              		@ frame_needed = 0, uses_anonymous_args = 0
 2008              	.LBB650:
 2009              	.LBI650:
 2010              		.loc 1 286 1 view .LVU514
 2011              	.LVL140:
 2012              	.LBB651:
 2013              	.LBB652:
 2014              	.LBI652:
  21:/Users/ansel/Documents/DaisyExamples/libDaisy//src/daisy_seed.h ****     ~DaisySeed() {}
 2015              		.loc 2 21 5 view .LVU515
 2016              	.LBB653:
 2017              	.LBB654:
 2018              	.LBI654:
 2019              		.file 10 "/Users/ansel/Documents/DaisyExamples/libDaisy//src/per/qspi.h"
   1:/Users/ansel/Documents/DaisyExamples/libDaisy//src/per/qspi.h **** #ifndef DSY_QSPI
   2:/Users/ansel/Documents/DaisyExamples/libDaisy//src/per/qspi.h **** #define DSY_QSPI /**< Macro */
   3:/Users/ansel/Documents/DaisyExamples/libDaisy//src/per/qspi.h **** 
   4:/Users/ansel/Documents/DaisyExamples/libDaisy//src/per/qspi.h **** #ifndef UNIT_TEST // for unit tests, a dummy implementation
   5:/Users/ansel/Documents/DaisyExamples/libDaisy//src/per/qspi.h **** 
   6:/Users/ansel/Documents/DaisyExamples/libDaisy//src/per/qspi.h **** #include <cstdint>
   7:/Users/ansel/Documents/DaisyExamples/libDaisy//src/per/qspi.h **** #include "daisy_core.h" // Added for dsy_gpio_pin typedef
   8:/Users/ansel/Documents/DaisyExamples/libDaisy//src/per/qspi.h **** 
   9:/Users/ansel/Documents/DaisyExamples/libDaisy//src/per/qspi.h **** #define DSY_QSPI_TEXT       \
  10:/Users/ansel/Documents/DaisyExamples/libDaisy//src/per/qspi.h ****     __attribute__((section( \
  11:/Users/ansel/Documents/DaisyExamples/libDaisy//src/per/qspi.h ****         ".qspiflash_text"))) /**< used for reading memory in memory_mapped mode. */
  12:/Users/ansel/Documents/DaisyExamples/libDaisy//src/per/qspi.h **** #define DSY_QSPI_DATA       \
  13:/Users/ansel/Documents/DaisyExamples/libDaisy//src/per/qspi.h ****     __attribute__((section( \
  14:/Users/ansel/Documents/DaisyExamples/libDaisy//src/per/qspi.h ****         ".qspiflash_data"))) /**< used for reading memory in memory_mapped mode. */
  15:/Users/ansel/Documents/DaisyExamples/libDaisy//src/per/qspi.h **** #define DSY_QSPI_BSS        \
  16:/Users/ansel/Documents/DaisyExamples/libDaisy//src/per/qspi.h ****     __attribute__((section( \
  17:/Users/ansel/Documents/DaisyExamples/libDaisy//src/per/qspi.h ****         ".qspiflash_bss"))) /**< used for reading memory in memory_mapped mode. */
  18:/Users/ansel/Documents/DaisyExamples/libDaisy//src/per/qspi.h **** 
  19:/Users/ansel/Documents/DaisyExamples/libDaisy//src/per/qspi.h **** namespace daisy
  20:/Users/ansel/Documents/DaisyExamples/libDaisy//src/per/qspi.h **** {
  21:/Users/ansel/Documents/DaisyExamples/libDaisy//src/per/qspi.h **** /** @addtogroup serial
  22:/Users/ansel/Documents/DaisyExamples/libDaisy//src/per/qspi.h **** @{
ARM GAS  /var/folders/5r/jcdnhfj535b7rff_ygc02qhr0000gn/T//ccwk7XuB.s 			page 56


  23:/Users/ansel/Documents/DaisyExamples/libDaisy//src/per/qspi.h **** */
  24:/Users/ansel/Documents/DaisyExamples/libDaisy//src/per/qspi.h **** 
  25:/Users/ansel/Documents/DaisyExamples/libDaisy//src/per/qspi.h **** /** 
  26:/Users/ansel/Documents/DaisyExamples/libDaisy//src/per/qspi.h ****  Driver for QSPI peripheral to interface with external flash memory. \n 
  27:/Users/ansel/Documents/DaisyExamples/libDaisy//src/per/qspi.h ****     Currently supported QSPI Devices: \n 
  28:/Users/ansel/Documents/DaisyExamples/libDaisy//src/per/qspi.h ****     * IS25LP080D
  29:/Users/ansel/Documents/DaisyExamples/libDaisy//src/per/qspi.h **** */
  30:/Users/ansel/Documents/DaisyExamples/libDaisy//src/per/qspi.h **** class QSPIHandle
  31:/Users/ansel/Documents/DaisyExamples/libDaisy//src/per/qspi.h **** {
  32:/Users/ansel/Documents/DaisyExamples/libDaisy//src/per/qspi.h ****   public:
  33:/Users/ansel/Documents/DaisyExamples/libDaisy//src/per/qspi.h ****     enum Result
  34:/Users/ansel/Documents/DaisyExamples/libDaisy//src/per/qspi.h ****     {
  35:/Users/ansel/Documents/DaisyExamples/libDaisy//src/per/qspi.h ****         OK = 0,
  36:/Users/ansel/Documents/DaisyExamples/libDaisy//src/per/qspi.h ****         ERR
  37:/Users/ansel/Documents/DaisyExamples/libDaisy//src/per/qspi.h ****     };
  38:/Users/ansel/Documents/DaisyExamples/libDaisy//src/per/qspi.h **** 
  39:/Users/ansel/Documents/DaisyExamples/libDaisy//src/per/qspi.h ****     /** Indicates the current status of the module. 
  40:/Users/ansel/Documents/DaisyExamples/libDaisy//src/per/qspi.h ****          *  Warnings are indicated by a leading W.
  41:/Users/ansel/Documents/DaisyExamples/libDaisy//src/per/qspi.h ****          *  Errors are indicated by a leading E and cause an immediate exit.
  42:/Users/ansel/Documents/DaisyExamples/libDaisy//src/per/qspi.h ****          * 
  43:/Users/ansel/Documents/DaisyExamples/libDaisy//src/per/qspi.h ****          *  \param GOOD - No errors have been reported.
  44:/Users/ansel/Documents/DaisyExamples/libDaisy//src/per/qspi.h ****          *  \param E_HAL_ERROR - HAL code did not return HAL_OK.
  45:/Users/ansel/Documents/DaisyExamples/libDaisy//src/per/qspi.h ****          *  \param E_SWITCHING_MODES - An error was encountered while switching QSPI peripheral mod
  46:/Users/ansel/Documents/DaisyExamples/libDaisy//src/per/qspi.h ****          *  \param E_INVALID_MODE - QSPI should not be written to while the program is executing fr
  47:/Users/ansel/Documents/DaisyExamples/libDaisy//src/per/qspi.h ****          */
  48:/Users/ansel/Documents/DaisyExamples/libDaisy//src/per/qspi.h ****     enum Status
  49:/Users/ansel/Documents/DaisyExamples/libDaisy//src/per/qspi.h ****     {
  50:/Users/ansel/Documents/DaisyExamples/libDaisy//src/per/qspi.h ****         GOOD = 0,
  51:/Users/ansel/Documents/DaisyExamples/libDaisy//src/per/qspi.h ****         E_HAL_ERROR,
  52:/Users/ansel/Documents/DaisyExamples/libDaisy//src/per/qspi.h ****         E_SWITCHING_MODES,
  53:/Users/ansel/Documents/DaisyExamples/libDaisy//src/per/qspi.h ****         E_INVALID_MODE,
  54:/Users/ansel/Documents/DaisyExamples/libDaisy//src/per/qspi.h ****     };
  55:/Users/ansel/Documents/DaisyExamples/libDaisy//src/per/qspi.h **** 
  56:/Users/ansel/Documents/DaisyExamples/libDaisy//src/per/qspi.h ****     /** Configuration structure for interfacing with QSPI Driver */
  57:/Users/ansel/Documents/DaisyExamples/libDaisy//src/per/qspi.h ****     struct Config
  58:/Users/ansel/Documents/DaisyExamples/libDaisy//src/per/qspi.h ****     {
  59:/Users/ansel/Documents/DaisyExamples/libDaisy//src/per/qspi.h ****         /** Flash Devices supported. (Both of these are more-or-less the same, just different sizes
  60:/Users/ansel/Documents/DaisyExamples/libDaisy//src/per/qspi.h ****         enum Device
  61:/Users/ansel/Documents/DaisyExamples/libDaisy//src/per/qspi.h ****         {
  62:/Users/ansel/Documents/DaisyExamples/libDaisy//src/per/qspi.h ****             IS25LP080D,  /**< & */
  63:/Users/ansel/Documents/DaisyExamples/libDaisy//src/per/qspi.h ****             IS25LP064A,  /**< & */
  64:/Users/ansel/Documents/DaisyExamples/libDaisy//src/per/qspi.h ****             DEVICE_LAST, /**< & */
  65:/Users/ansel/Documents/DaisyExamples/libDaisy//src/per/qspi.h ****         };
  66:/Users/ansel/Documents/DaisyExamples/libDaisy//src/per/qspi.h **** 
  67:/Users/ansel/Documents/DaisyExamples/libDaisy//src/per/qspi.h ****         /** 
  68:/Users/ansel/Documents/DaisyExamples/libDaisy//src/per/qspi.h ****         Modes of operation.
  69:/Users/ansel/Documents/DaisyExamples/libDaisy//src/per/qspi.h ****         Memory Mapped mode: QSPI configured so that the QSPI can be
  70:/Users/ansel/Documents/DaisyExamples/libDaisy//src/per/qspi.h ****         read from starting address 0x90000000. Writing is not
  71:/Users/ansel/Documents/DaisyExamples/libDaisy//src/per/qspi.h ****         possible in this mode. \n 
  72:/Users/ansel/Documents/DaisyExamples/libDaisy//src/per/qspi.h ****         Indirect Polling mode: Device driver enabled. 
  73:/Users/ansel/Documents/DaisyExamples/libDaisy//src/per/qspi.h ****         */
  74:/Users/ansel/Documents/DaisyExamples/libDaisy//src/per/qspi.h ****         enum Mode
  75:/Users/ansel/Documents/DaisyExamples/libDaisy//src/per/qspi.h ****         {
  76:/Users/ansel/Documents/DaisyExamples/libDaisy//src/per/qspi.h ****             MEMORY_MAPPED,    /**< & */
  77:/Users/ansel/Documents/DaisyExamples/libDaisy//src/per/qspi.h ****             INDIRECT_POLLING, /**< & */
  78:/Users/ansel/Documents/DaisyExamples/libDaisy//src/per/qspi.h ****             MODE_LAST,
  79:/Users/ansel/Documents/DaisyExamples/libDaisy//src/per/qspi.h ****         };
ARM GAS  /var/folders/5r/jcdnhfj535b7rff_ygc02qhr0000gn/T//ccwk7XuB.s 			page 57


  80:/Users/ansel/Documents/DaisyExamples/libDaisy//src/per/qspi.h **** 
  81:/Users/ansel/Documents/DaisyExamples/libDaisy//src/per/qspi.h ****         //SCK,  CE# (active low)
  82:/Users/ansel/Documents/DaisyExamples/libDaisy//src/per/qspi.h ****         struct
  83:/Users/ansel/Documents/DaisyExamples/libDaisy//src/per/qspi.h ****         {
  84:/Users/ansel/Documents/DaisyExamples/libDaisy//src/per/qspi.h ****             dsy_gpio_pin io0; /**< & */
  85:/Users/ansel/Documents/DaisyExamples/libDaisy//src/per/qspi.h ****             dsy_gpio_pin io1; /**< & */
  86:/Users/ansel/Documents/DaisyExamples/libDaisy//src/per/qspi.h ****             dsy_gpio_pin io2; /**< & */
  87:/Users/ansel/Documents/DaisyExamples/libDaisy//src/per/qspi.h ****             dsy_gpio_pin io3; /**< & */
  88:/Users/ansel/Documents/DaisyExamples/libDaisy//src/per/qspi.h ****             dsy_gpio_pin clk; /**< & */
  89:/Users/ansel/Documents/DaisyExamples/libDaisy//src/per/qspi.h ****             dsy_gpio_pin ncs; /**< & */
  90:/Users/ansel/Documents/DaisyExamples/libDaisy//src/per/qspi.h ****         } pin_config;
  91:/Users/ansel/Documents/DaisyExamples/libDaisy//src/per/qspi.h **** 
  92:/Users/ansel/Documents/DaisyExamples/libDaisy//src/per/qspi.h ****         Device device;
  93:/Users/ansel/Documents/DaisyExamples/libDaisy//src/per/qspi.h ****         Mode   mode;
  94:/Users/ansel/Documents/DaisyExamples/libDaisy//src/per/qspi.h ****     };
  95:/Users/ansel/Documents/DaisyExamples/libDaisy//src/per/qspi.h **** 
  96:/Users/ansel/Documents/DaisyExamples/libDaisy//src/per/qspi.h ****     /** 
  97:/Users/ansel/Documents/DaisyExamples/libDaisy//src/per/qspi.h ****         Initializes QSPI peripheral, and Resets, and prepares memory for access.
  98:/Users/ansel/Documents/DaisyExamples/libDaisy//src/per/qspi.h ****         \param config should be populated with the mode, device and pin_config before calling this 
  99:/Users/ansel/Documents/DaisyExamples/libDaisy//src/per/qspi.h ****         \return Result::OK or Result::ERR
 100:/Users/ansel/Documents/DaisyExamples/libDaisy//src/per/qspi.h ****         */
 101:/Users/ansel/Documents/DaisyExamples/libDaisy//src/per/qspi.h ****     Result Init(const Config& config);
 102:/Users/ansel/Documents/DaisyExamples/libDaisy//src/per/qspi.h **** 
 103:/Users/ansel/Documents/DaisyExamples/libDaisy//src/per/qspi.h ****     /** Returns the current config. */
 104:/Users/ansel/Documents/DaisyExamples/libDaisy//src/per/qspi.h ****     const Config& GetConfig() const;
 105:/Users/ansel/Documents/DaisyExamples/libDaisy//src/per/qspi.h **** 
 106:/Users/ansel/Documents/DaisyExamples/libDaisy//src/per/qspi.h ****     // Couldn't this just be called before anything else in init? That
 107:/Users/ansel/Documents/DaisyExamples/libDaisy//src/per/qspi.h ****     // would make manually calling it unnecessary.
 108:/Users/ansel/Documents/DaisyExamples/libDaisy//src/per/qspi.h ****     /** 
 109:/Users/ansel/Documents/DaisyExamples/libDaisy//src/per/qspi.h ****         Deinitializes the peripheral
 110:/Users/ansel/Documents/DaisyExamples/libDaisy//src/per/qspi.h ****         This should be called before reinitializing QSPI in a different mode.
 111:/Users/ansel/Documents/DaisyExamples/libDaisy//src/per/qspi.h ****         \return Result::OK or Result::ERR
 112:/Users/ansel/Documents/DaisyExamples/libDaisy//src/per/qspi.h ****         */
 113:/Users/ansel/Documents/DaisyExamples/libDaisy//src/per/qspi.h ****     Result DeInit();
 114:/Users/ansel/Documents/DaisyExamples/libDaisy//src/per/qspi.h **** 
 115:/Users/ansel/Documents/DaisyExamples/libDaisy//src/per/qspi.h ****     /** 
 116:/Users/ansel/Documents/DaisyExamples/libDaisy//src/per/qspi.h ****         Writes a single page to to the specified address on the QSPI chip.
 117:/Users/ansel/Documents/DaisyExamples/libDaisy//src/per/qspi.h ****         For IS25LP*, page size is 256 bytes.
 118:/Users/ansel/Documents/DaisyExamples/libDaisy//src/per/qspi.h ****         \param address Address to write to
 119:/Users/ansel/Documents/DaisyExamples/libDaisy//src/per/qspi.h ****         \param size Buffer size
 120:/Users/ansel/Documents/DaisyExamples/libDaisy//src/per/qspi.h ****         \param buffer Buffer to write
 121:/Users/ansel/Documents/DaisyExamples/libDaisy//src/per/qspi.h ****         \return Result::OK or Result::ERR
 122:/Users/ansel/Documents/DaisyExamples/libDaisy//src/per/qspi.h ****         */
 123:/Users/ansel/Documents/DaisyExamples/libDaisy//src/per/qspi.h ****     Result WritePage(uint32_t address, uint32_t size, uint8_t* buffer);
 124:/Users/ansel/Documents/DaisyExamples/libDaisy//src/per/qspi.h **** 
 125:/Users/ansel/Documents/DaisyExamples/libDaisy//src/per/qspi.h ****     /** 
 126:/Users/ansel/Documents/DaisyExamples/libDaisy//src/per/qspi.h ****         Writes data in buffer to to the QSPI. Starting at address to address+size 
 127:/Users/ansel/Documents/DaisyExamples/libDaisy//src/per/qspi.h ****         \param address Address to write to
 128:/Users/ansel/Documents/DaisyExamples/libDaisy//src/per/qspi.h ****         \param size Buffer size
 129:/Users/ansel/Documents/DaisyExamples/libDaisy//src/per/qspi.h ****         \param buffer Buffer to write
 130:/Users/ansel/Documents/DaisyExamples/libDaisy//src/per/qspi.h ****         \return Result::OK or Result::ERR
 131:/Users/ansel/Documents/DaisyExamples/libDaisy//src/per/qspi.h ****         */
 132:/Users/ansel/Documents/DaisyExamples/libDaisy//src/per/qspi.h ****     Result Write(uint32_t address, uint32_t size, uint8_t* buffer);
 133:/Users/ansel/Documents/DaisyExamples/libDaisy//src/per/qspi.h **** 
 134:/Users/ansel/Documents/DaisyExamples/libDaisy//src/per/qspi.h ****     /** 
 135:/Users/ansel/Documents/DaisyExamples/libDaisy//src/per/qspi.h ****         Erases the area specified on the chip.
 136:/Users/ansel/Documents/DaisyExamples/libDaisy//src/per/qspi.h ****         Erasures will happen by 4K, 32K or 64K increments.
ARM GAS  /var/folders/5r/jcdnhfj535b7rff_ygc02qhr0000gn/T//ccwk7XuB.s 			page 58


 137:/Users/ansel/Documents/DaisyExamples/libDaisy//src/per/qspi.h ****         Smallest erase possible is 4kB at a time. (on IS25LP*)
 138:/Users/ansel/Documents/DaisyExamples/libDaisy//src/per/qspi.h ****         \param start_addr Address to begin erasing from
 139:/Users/ansel/Documents/DaisyExamples/libDaisy//src/per/qspi.h ****         \param end_addr  Address to stop erasing at
 140:/Users/ansel/Documents/DaisyExamples/libDaisy//src/per/qspi.h ****         \return Result::OK or Result::ERR
 141:/Users/ansel/Documents/DaisyExamples/libDaisy//src/per/qspi.h ****         */
 142:/Users/ansel/Documents/DaisyExamples/libDaisy//src/per/qspi.h ****     Result Erase(uint32_t start_addr, uint32_t end_addr);
 143:/Users/ansel/Documents/DaisyExamples/libDaisy//src/per/qspi.h **** 
 144:/Users/ansel/Documents/DaisyExamples/libDaisy//src/per/qspi.h ****     /**  
 145:/Users/ansel/Documents/DaisyExamples/libDaisy//src/per/qspi.h ****          Erases a single sector of the chip.  
 146:/Users/ansel/Documents/DaisyExamples/libDaisy//src/per/qspi.h ****         TODO: Document the size of this function. 
 147:/Users/ansel/Documents/DaisyExamples/libDaisy//src/per/qspi.h ****         \param address Address of sector to erase
 148:/Users/ansel/Documents/DaisyExamples/libDaisy//src/per/qspi.h ****         \return Result::OK or Result::ERR
 149:/Users/ansel/Documents/DaisyExamples/libDaisy//src/per/qspi.h ****         */
 150:/Users/ansel/Documents/DaisyExamples/libDaisy//src/per/qspi.h ****     Result EraseSector(uint32_t address);
 151:/Users/ansel/Documents/DaisyExamples/libDaisy//src/per/qspi.h **** 
 152:/Users/ansel/Documents/DaisyExamples/libDaisy//src/per/qspi.h ****     /** Returns the current class status. Useful for debugging.
 153:/Users/ansel/Documents/DaisyExamples/libDaisy//src/per/qspi.h ****      *  \returns Status
 154:/Users/ansel/Documents/DaisyExamples/libDaisy//src/per/qspi.h ****      */
 155:/Users/ansel/Documents/DaisyExamples/libDaisy//src/per/qspi.h ****     Status GetStatus();
 156:/Users/ansel/Documents/DaisyExamples/libDaisy//src/per/qspi.h **** 
 157:/Users/ansel/Documents/DaisyExamples/libDaisy//src/per/qspi.h ****     /** Returns a pointer to the actual memory used 
 158:/Users/ansel/Documents/DaisyExamples/libDaisy//src/per/qspi.h ****      *  The memory at this address is read-only
 159:/Users/ansel/Documents/DaisyExamples/libDaisy//src/per/qspi.h ****      *  to write to it use the Write function.
 160:/Users/ansel/Documents/DaisyExamples/libDaisy//src/per/qspi.h ****      * 
 161:/Users/ansel/Documents/DaisyExamples/libDaisy//src/per/qspi.h ****      *  \param offset returns the pointer starting this 
 162:/Users/ansel/Documents/DaisyExamples/libDaisy//src/per/qspi.h ****      *                many bytes into the memory
 163:/Users/ansel/Documents/DaisyExamples/libDaisy//src/per/qspi.h ****     */
 164:/Users/ansel/Documents/DaisyExamples/libDaisy//src/per/qspi.h ****     void* GetData(uint32_t offset = 0);
 165:/Users/ansel/Documents/DaisyExamples/libDaisy//src/per/qspi.h **** 
 166:/Users/ansel/Documents/DaisyExamples/libDaisy//src/per/qspi.h ****     QSPIHandle() : pimpl_(nullptr) {}
 2020              		.loc 10 166 5 view .LVU516
 2021              	.LBE654:
 2022              	.LBE653:
 2023              	.LBE652:
 2024              	.LBE651:
 2025              	.LBE650:
 2026              		.loc 1 286 1 is_stmt 0 view .LVU517
 2027 0000 10B5     		push	{r4, lr}
 2028              		.cfi_def_cfa_offset 8
 2029              		.cfi_offset 4, -8
 2030              		.cfi_offset 14, -4
 2031              	.LBB729:
 2032              	.LBB728:
 2033              	.LBB672:
 2034              	.LBB670:
 2035              	.LBB659:
 2036              	.LBB655:
 2037              	.LBB656:
 2038              		.loc 10 166 20 view .LVU518
 2039 0002 2948     		ldr	r0, .L93
 2040 0004 0024     		movs	r4, #0
 2041              	.LBE656:
 2042              	.LBE655:
 2043              	.LBE659:
 2044              	.LBE670:
 2045              	.LBE672:
  41:big_knob.cpp  **** 
ARM GAS  /var/folders/5r/jcdnhfj535b7rff_ygc02qhr0000gn/T//ccwk7XuB.s 			page 59


 2046              		.loc 1 41 11 view .LVU519
 2047 0006 294A     		ldr	r2, .L93+4
 2048 0008 2949     		ldr	r1, .L93+8
 2049              	.LBB673:
 2050              	.LBB671:
 2051              	.LBB660:
 2052              	.LBB658:
 2053              	.LBB657:
 2054              		.loc 10 166 20 view .LVU520
 2055 000a 0460     		str	r4, [r0]
 2056              	.LVL141:
 2057              		.loc 10 166 20 view .LVU521
 2058              	.LBE657:
 2059              	.LBE658:
 2060              	.LBE660:
 2061              	.LBB661:
 2062              	.LBI661:
  95:/Users/ansel/Documents/DaisyExamples/libDaisy//src/hid/audio.h ****     ~AudioHandle() {}
 2063              		.loc 6 95 5 is_stmt 1 view .LVU522
 2064              	.LBB662:
 2065              	.LBB663:
  95:/Users/ansel/Documents/DaisyExamples/libDaisy//src/hid/audio.h ****     ~AudioHandle() {}
 2066              		.loc 6 95 21 is_stmt 0 view .LVU523
 2067 000c 4461     		str	r4, [r0, #20]
 2068              	.LVL142:
  95:/Users/ansel/Documents/DaisyExamples/libDaisy//src/hid/audio.h ****     ~AudioHandle() {}
 2069              		.loc 6 95 21 view .LVU524
 2070              	.LBE663:
 2071              	.LBE662:
 2072              	.LBE661:
 2073              	.LBB664:
 2074              	.LBI664:
  92:/Users/ansel/Documents/DaisyExamples/libDaisy//src/per/adc.h ****     ~AdcHandle() {}
 2075              		.loc 5 92 5 is_stmt 1 view .LVU525
  92:/Users/ansel/Documents/DaisyExamples/libDaisy//src/per/adc.h ****     ~AdcHandle() {}
 2076              		.loc 5 92 5 is_stmt 0 view .LVU526
 2077              	.LBE664:
 2078              	.LBB665:
 2079              	.LBI665:
 2080              		.file 11 "/Users/ansel/Documents/DaisyExamples/libDaisy//src/per/dac.h"
   1:/Users/ansel/Documents/DaisyExamples/libDaisy//src/per/dac.h **** #pragma once
   2:/Users/ansel/Documents/DaisyExamples/libDaisy//src/per/dac.h **** #ifndef DSY_DAC_H
   3:/Users/ansel/Documents/DaisyExamples/libDaisy//src/per/dac.h **** #define DSY_DAC_H
   4:/Users/ansel/Documents/DaisyExamples/libDaisy//src/per/dac.h **** 
   5:/Users/ansel/Documents/DaisyExamples/libDaisy//src/per/dac.h **** #include "daisy_core.h"
   6:/Users/ansel/Documents/DaisyExamples/libDaisy//src/per/dac.h **** 
   7:/Users/ansel/Documents/DaisyExamples/libDaisy//src/per/dac.h **** namespace daisy
   8:/Users/ansel/Documents/DaisyExamples/libDaisy//src/per/dac.h **** {
   9:/Users/ansel/Documents/DaisyExamples/libDaisy//src/per/dac.h **** /** @brief DAC handle for Built-in DAC Peripheral 
  10:/Users/ansel/Documents/DaisyExamples/libDaisy//src/per/dac.h ****  *  @ingroup per_analog
  11:/Users/ansel/Documents/DaisyExamples/libDaisy//src/per/dac.h ****  ** 
  12:/Users/ansel/Documents/DaisyExamples/libDaisy//src/per/dac.h ****  ** For now only Normal Mode is supported,
  13:/Users/ansel/Documents/DaisyExamples/libDaisy//src/per/dac.h ****  ** Sample and hold mode provides reduced power consumption, but requires a bit more setup.
  14:/Users/ansel/Documents/DaisyExamples/libDaisy//src/per/dac.h ****  **
  15:/Users/ansel/Documents/DaisyExamples/libDaisy//src/per/dac.h ****  ** For now connecting the DAC through other internal peripherals is also not supported.
  16:/Users/ansel/Documents/DaisyExamples/libDaisy//src/per/dac.h ****  **
  17:/Users/ansel/Documents/DaisyExamples/libDaisy//src/per/dac.h ****  ** Since the DAC channels have dedicated pins we don't need to pass in a pin config like with
ARM GAS  /var/folders/5r/jcdnhfj535b7rff_ygc02qhr0000gn/T//ccwk7XuB.s 			page 60


  18:/Users/ansel/Documents/DaisyExamples/libDaisy//src/per/dac.h ****  ** other modules. However, it is still important to not try to use the DAC pins for anything else.
  19:/Users/ansel/Documents/DaisyExamples/libDaisy//src/per/dac.h ****  ** DAC Channel 1 is on PA4, and DAC Channel 2 is on PA5
  20:/Users/ansel/Documents/DaisyExamples/libDaisy//src/per/dac.h ****  ***/
  21:/Users/ansel/Documents/DaisyExamples/libDaisy//src/per/dac.h **** class DacHandle
  22:/Users/ansel/Documents/DaisyExamples/libDaisy//src/per/dac.h **** {
  23:/Users/ansel/Documents/DaisyExamples/libDaisy//src/per/dac.h ****   public:
  24:/Users/ansel/Documents/DaisyExamples/libDaisy//src/per/dac.h ****     /** Return Values for the DacHandle class */
  25:/Users/ansel/Documents/DaisyExamples/libDaisy//src/per/dac.h ****     enum class Result
  26:/Users/ansel/Documents/DaisyExamples/libDaisy//src/per/dac.h ****     {
  27:/Users/ansel/Documents/DaisyExamples/libDaisy//src/per/dac.h ****         OK,
  28:/Users/ansel/Documents/DaisyExamples/libDaisy//src/per/dac.h ****         ERR,
  29:/Users/ansel/Documents/DaisyExamples/libDaisy//src/per/dac.h ****     };
  30:/Users/ansel/Documents/DaisyExamples/libDaisy//src/per/dac.h **** 
  31:/Users/ansel/Documents/DaisyExamples/libDaisy//src/per/dac.h ****     /** Selects which channel(s) will be configured for use. */
  32:/Users/ansel/Documents/DaisyExamples/libDaisy//src/per/dac.h ****     enum class Channel
  33:/Users/ansel/Documents/DaisyExamples/libDaisy//src/per/dac.h ****     {
  34:/Users/ansel/Documents/DaisyExamples/libDaisy//src/per/dac.h ****         ONE,
  35:/Users/ansel/Documents/DaisyExamples/libDaisy//src/per/dac.h ****         TWO,
  36:/Users/ansel/Documents/DaisyExamples/libDaisy//src/per/dac.h ****         BOTH,
  37:/Users/ansel/Documents/DaisyExamples/libDaisy//src/per/dac.h ****     };
  38:/Users/ansel/Documents/DaisyExamples/libDaisy//src/per/dac.h **** 
  39:/Users/ansel/Documents/DaisyExamples/libDaisy//src/per/dac.h ****     /** Sets the Mode for the DAC channels.
  40:/Users/ansel/Documents/DaisyExamples/libDaisy//src/per/dac.h ****      **
  41:/Users/ansel/Documents/DaisyExamples/libDaisy//src/per/dac.h ****      ** Polling mode uses the blocking mode to transmit a single value at a time.
  42:/Users/ansel/Documents/DaisyExamples/libDaisy//src/per/dac.h ****      **
  43:/Users/ansel/Documents/DaisyExamples/libDaisy//src/per/dac.h ****      ** DMA mode uses a buffer, and periodically transmits it triggering a 
  44:/Users/ansel/Documents/DaisyExamples/libDaisy//src/per/dac.h ****      ** callback to fill the buffer when it is ready for more samples.
  45:/Users/ansel/Documents/DaisyExamples/libDaisy//src/per/dac.h ****      ***/
  46:/Users/ansel/Documents/DaisyExamples/libDaisy//src/per/dac.h ****     enum class Mode
  47:/Users/ansel/Documents/DaisyExamples/libDaisy//src/per/dac.h ****     {
  48:/Users/ansel/Documents/DaisyExamples/libDaisy//src/per/dac.h ****         POLLING,
  49:/Users/ansel/Documents/DaisyExamples/libDaisy//src/per/dac.h ****         DMA,
  50:/Users/ansel/Documents/DaisyExamples/libDaisy//src/per/dac.h ****     };
  51:/Users/ansel/Documents/DaisyExamples/libDaisy//src/per/dac.h **** 
  52:/Users/ansel/Documents/DaisyExamples/libDaisy//src/per/dac.h ****     /** Sets the number of bits per sample transmitted out of the DAC.
  53:/Users/ansel/Documents/DaisyExamples/libDaisy//src/per/dac.h ****      ** The output range will be: 0V - VDDA
  54:/Users/ansel/Documents/DaisyExamples/libDaisy//src/per/dac.h ****      ** The resolution will be roughly: bitdepth / (VDDA - 0V) 
  55:/Users/ansel/Documents/DaisyExamples/libDaisy//src/per/dac.h ****      ***/
  56:/Users/ansel/Documents/DaisyExamples/libDaisy//src/per/dac.h ****     enum class BitDepth
  57:/Users/ansel/Documents/DaisyExamples/libDaisy//src/per/dac.h ****     {
  58:/Users/ansel/Documents/DaisyExamples/libDaisy//src/per/dac.h ****         BITS_8,
  59:/Users/ansel/Documents/DaisyExamples/libDaisy//src/per/dac.h ****         BITS_12
  60:/Users/ansel/Documents/DaisyExamples/libDaisy//src/per/dac.h ****     };
  61:/Users/ansel/Documents/DaisyExamples/libDaisy//src/per/dac.h **** 
  62:/Users/ansel/Documents/DaisyExamples/libDaisy//src/per/dac.h ****     /** Sets whether the DAC output is buffered for higher drive ability. */
  63:/Users/ansel/Documents/DaisyExamples/libDaisy//src/per/dac.h ****     enum class BufferState
  64:/Users/ansel/Documents/DaisyExamples/libDaisy//src/per/dac.h ****     {
  65:/Users/ansel/Documents/DaisyExamples/libDaisy//src/per/dac.h ****         ENABLED,
  66:/Users/ansel/Documents/DaisyExamples/libDaisy//src/per/dac.h ****         DISABLED,
  67:/Users/ansel/Documents/DaisyExamples/libDaisy//src/per/dac.h ****     };
  68:/Users/ansel/Documents/DaisyExamples/libDaisy//src/per/dac.h **** 
  69:/Users/ansel/Documents/DaisyExamples/libDaisy//src/per/dac.h ****     /** Configuration structure for initializing the DAC structure. */
  70:/Users/ansel/Documents/DaisyExamples/libDaisy//src/per/dac.h ****     struct Config
  71:/Users/ansel/Documents/DaisyExamples/libDaisy//src/per/dac.h ****     {
  72:/Users/ansel/Documents/DaisyExamples/libDaisy//src/per/dac.h ****         /** Target Samplerate in Hz used to configure the internal 
  73:/Users/ansel/Documents/DaisyExamples/libDaisy//src/per/dac.h ****          ** timebase for DMA mode. Does nothing in POLLING mode.
  74:/Users/ansel/Documents/DaisyExamples/libDaisy//src/per/dac.h ****          ** If the value is 0 at Init time this will default to 48000Hz 
ARM GAS  /var/folders/5r/jcdnhfj535b7rff_ygc02qhr0000gn/T//ccwk7XuB.s 			page 61


  75:/Users/ansel/Documents/DaisyExamples/libDaisy//src/per/dac.h ****          ** otherwise the driver will attempt meet the target.*/
  76:/Users/ansel/Documents/DaisyExamples/libDaisy//src/per/dac.h ****         uint32_t target_samplerate;
  77:/Users/ansel/Documents/DaisyExamples/libDaisy//src/per/dac.h **** 
  78:/Users/ansel/Documents/DaisyExamples/libDaisy//src/per/dac.h ****         Channel     chn;
  79:/Users/ansel/Documents/DaisyExamples/libDaisy//src/per/dac.h ****         Mode        mode;
  80:/Users/ansel/Documents/DaisyExamples/libDaisy//src/per/dac.h ****         BitDepth    bitdepth;
  81:/Users/ansel/Documents/DaisyExamples/libDaisy//src/per/dac.h ****         BufferState buff_state;
  82:/Users/ansel/Documents/DaisyExamples/libDaisy//src/per/dac.h ****     };
  83:/Users/ansel/Documents/DaisyExamples/libDaisy//src/per/dac.h **** 
  84:/Users/ansel/Documents/DaisyExamples/libDaisy//src/per/dac.h ****     DacHandle() : pimpl_(nullptr) {}
 2081              		.loc 11 84 5 is_stmt 1 view .LVU527
 2082              	.LBB666:
 2083              	.LBB667:
 2084              		.loc 11 84 19 is_stmt 0 view .LVU528
 2085 000e 0462     		str	r4, [r0, #32]
 2086              	.LVL143:
 2087              		.loc 11 84 19 view .LVU529
 2088              	.LBE667:
 2089              	.LBE666:
 2090              	.LBE665:
 2091              	.LBB668:
 2092              	.LBI668:
  40:/Users/ansel/Documents/DaisyExamples/libDaisy//src/hid/usb.h **** 
 2093              		.loc 4 40 5 is_stmt 1 view .LVU530
  40:/Users/ansel/Documents/DaisyExamples/libDaisy//src/hid/usb.h **** 
 2094              		.loc 4 40 5 is_stmt 0 view .LVU531
 2095              	.LBE668:
 2096              	.LBB669:
 2097              	.LBI669:
  77:/Users/ansel/Documents/DaisyExamples/libDaisy//src/sys/system.h ****     ~System() {}
 2098              		.loc 3 77 5 is_stmt 1 view .LVU532
  77:/Users/ansel/Documents/DaisyExamples/libDaisy//src/sys/system.h ****     ~System() {}
 2099              		.loc 3 77 5 is_stmt 0 view .LVU533
 2100              	.LBE669:
 2101              	.LBE671:
 2102              	.LBE673:
  41:big_knob.cpp  **** 
 2103              		.loc 1 41 11 view .LVU534
 2104 0010 FFF7FEFF 		bl	__aeabi_atexit
 2105              	.LVL144:
 2106              	.LBB674:
 2107              	.LBI674:
  15:/Users/ansel/Documents/DaisyExamples/DaisySP//Source/Synthesis/oscillator.h ****     ~Oscillator() {}
 2108              		.loc 7 15 5 is_stmt 1 view .LVU535
  15:/Users/ansel/Documents/DaisyExamples/DaisySP//Source/Synthesis/oscillator.h ****     ~Oscillator() {}
 2109              		.loc 7 15 5 is_stmt 0 view .LVU536
 2110              	.LBE674:
  43:big_knob.cpp  **** Oscillator osc2;
 2111              		.loc 1 43 12 view .LVU537
 2112 0014 254A     		ldr	r2, .L93+4
 2113 0016 2749     		ldr	r1, .L93+12
 2114 0018 2748     		ldr	r0, .L93+16
 2115 001a FFF7FEFF 		bl	__aeabi_atexit
 2116              	.LVL145:
 2117              	.LBB675:
 2118              	.LBI675:
  15:/Users/ansel/Documents/DaisyExamples/DaisySP//Source/Synthesis/oscillator.h ****     ~Oscillator() {}
ARM GAS  /var/folders/5r/jcdnhfj535b7rff_ygc02qhr0000gn/T//ccwk7XuB.s 			page 62


 2119              		.loc 7 15 5 is_stmt 1 view .LVU538
  15:/Users/ansel/Documents/DaisyExamples/DaisySP//Source/Synthesis/oscillator.h ****     ~Oscillator() {}
 2120              		.loc 7 15 5 is_stmt 0 view .LVU539
 2121              	.LBE675:
  44:big_knob.cpp  **** Oscillator osc3;
 2122              		.loc 1 44 12 view .LVU540
 2123 001e 234A     		ldr	r2, .L93+4
 2124 0020 2449     		ldr	r1, .L93+12
 2125 0022 2648     		ldr	r0, .L93+20
 2126 0024 FFF7FEFF 		bl	__aeabi_atexit
 2127              	.LVL146:
 2128              	.LBB676:
 2129              	.LBI676:
  15:/Users/ansel/Documents/DaisyExamples/DaisySP//Source/Synthesis/oscillator.h ****     ~Oscillator() {}
 2130              		.loc 7 15 5 is_stmt 1 view .LVU541
  15:/Users/ansel/Documents/DaisyExamples/DaisySP//Source/Synthesis/oscillator.h ****     ~Oscillator() {}
 2131              		.loc 7 15 5 is_stmt 0 view .LVU542
 2132              	.LBE676:
  45:big_knob.cpp  **** Biquad     flt1;
 2133              		.loc 1 45 12 view .LVU543
 2134 0028 204A     		ldr	r2, .L93+4
 2135 002a 2249     		ldr	r1, .L93+12
 2136 002c 2448     		ldr	r0, .L93+24
 2137 002e FFF7FEFF 		bl	__aeabi_atexit
 2138              	.LVL147:
 2139              	.LBB677:
 2140              	.LBI677:
  21:/Users/ansel/Documents/DaisyExamples/DaisySP//Source/Filters/biquad.h ****     ~Biquad() {}
 2141              		.loc 9 21 5 is_stmt 1 view .LVU544
  21:/Users/ansel/Documents/DaisyExamples/DaisySP//Source/Filters/biquad.h ****     ~Biquad() {}
 2142              		.loc 9 21 5 is_stmt 0 view .LVU545
 2143              	.LBE677:
  46:big_knob.cpp  **** Biquad     flt2;
 2144              		.loc 1 46 12 view .LVU546
 2145 0032 1E4A     		ldr	r2, .L93+4
 2146 0034 2349     		ldr	r1, .L93+28
 2147 0036 2448     		ldr	r0, .L93+32
 2148 0038 FFF7FEFF 		bl	__aeabi_atexit
 2149              	.LVL148:
 2150              	.LBB678:
 2151              	.LBI678:
  21:/Users/ansel/Documents/DaisyExamples/DaisySP//Source/Filters/biquad.h ****     ~Biquad() {}
 2152              		.loc 9 21 5 is_stmt 1 view .LVU547
  21:/Users/ansel/Documents/DaisyExamples/DaisySP//Source/Filters/biquad.h ****     ~Biquad() {}
 2153              		.loc 9 21 5 is_stmt 0 view .LVU548
 2154              	.LBE678:
  47:big_knob.cpp  **** Biquad     flt3;
 2155              		.loc 1 47 12 view .LVU549
 2156 003c 1B4A     		ldr	r2, .L93+4
 2157 003e 2149     		ldr	r1, .L93+28
 2158 0040 2248     		ldr	r0, .L93+36
 2159 0042 FFF7FEFF 		bl	__aeabi_atexit
 2160              	.LVL149:
 2161              	.LBB679:
 2162              	.LBI679:
  21:/Users/ansel/Documents/DaisyExamples/DaisySP//Source/Filters/biquad.h ****     ~Biquad() {}
 2163              		.loc 9 21 5 is_stmt 1 view .LVU550
ARM GAS  /var/folders/5r/jcdnhfj535b7rff_ygc02qhr0000gn/T//ccwk7XuB.s 			page 63


  21:/Users/ansel/Documents/DaisyExamples/DaisySP//Source/Filters/biquad.h ****     ~Biquad() {}
 2164              		.loc 9 21 5 is_stmt 0 view .LVU551
 2165              	.LBE679:
  48:big_knob.cpp  **** ReverbSc   reverb;
 2166              		.loc 1 48 12 view .LVU552
 2167 0046 194A     		ldr	r2, .L93+4
 2168 0048 1E49     		ldr	r1, .L93+28
 2169 004a 2148     		ldr	r0, .L93+40
 2170 004c FFF7FEFF 		bl	__aeabi_atexit
 2171              	.LVL150:
 2172              	.LBB680:
 2173              	.LBI680:
  40:/Users/ansel/Documents/DaisyExamples/DaisySP//Source/Effects/reverbsc.h ****     ~ReverbSc() {}
 2174              		.loc 8 40 5 is_stmt 1 view .LVU553
  40:/Users/ansel/Documents/DaisyExamples/DaisySP//Source/Effects/reverbsc.h ****     ~ReverbSc() {}
 2175              		.loc 8 40 5 is_stmt 0 view .LVU554
 2176              	.LBE680:
  49:big_knob.cpp  **** 
 2177              		.loc 1 49 12 view .LVU555
 2178 0050 164A     		ldr	r2, .L93+4
 2179 0052 2049     		ldr	r1, .L93+44
 2180 0054 2048     		ldr	r0, .L93+48
 2181 0056 FFF7FEFF 		bl	__aeabi_atexit
 2182              	.LVL151:
 2183              	.LBB681:
 2184              	.LBI681:
 2185              		.file 12 "/Users/ansel/Documents/DaisyExamples/libDaisy//src/per/gpio.h"
   1:/Users/ansel/Documents/DaisyExamples/libDaisy//src/per/gpio.h **** #pragma once
   2:/Users/ansel/Documents/DaisyExamples/libDaisy//src/per/gpio.h **** #ifndef DSY_GPIO_H
   3:/Users/ansel/Documents/DaisyExamples/libDaisy//src/per/gpio.h **** #define DSY_GPIO_H
   4:/Users/ansel/Documents/DaisyExamples/libDaisy//src/per/gpio.h **** #include "daisy_core.h"
   5:/Users/ansel/Documents/DaisyExamples/libDaisy//src/per/gpio.h **** 
   6:/Users/ansel/Documents/DaisyExamples/libDaisy//src/per/gpio.h **** #ifdef __cplusplus
   7:/Users/ansel/Documents/DaisyExamples/libDaisy//src/per/gpio.h **** 
   8:/Users/ansel/Documents/DaisyExamples/libDaisy//src/per/gpio.h **** namespace daisy
   9:/Users/ansel/Documents/DaisyExamples/libDaisy//src/per/gpio.h **** {
  10:/Users/ansel/Documents/DaisyExamples/libDaisy//src/per/gpio.h **** /** @brief General Purpose I/O control 
  11:/Users/ansel/Documents/DaisyExamples/libDaisy//src/per/gpio.h ****  *  @details peripheral control over a single GPIO
  12:/Users/ansel/Documents/DaisyExamples/libDaisy//src/per/gpio.h ****  *  @ingroup peripheral
  13:/Users/ansel/Documents/DaisyExamples/libDaisy//src/per/gpio.h ****  *   
  14:/Users/ansel/Documents/DaisyExamples/libDaisy//src/per/gpio.h ****  *  Button Input (with internal Pullup resistor)
  15:/Users/ansel/Documents/DaisyExamples/libDaisy//src/per/gpio.h ****  *  @include GPIO_Input.cpp 
  16:/Users/ansel/Documents/DaisyExamples/libDaisy//src/per/gpio.h ****  * 
  17:/Users/ansel/Documents/DaisyExamples/libDaisy//src/per/gpio.h ****  *  Output Example (perfect for blinking an LED)
  18:/Users/ansel/Documents/DaisyExamples/libDaisy//src/per/gpio.h ****  *  @include GPIO_Output.cpp
  19:/Users/ansel/Documents/DaisyExamples/libDaisy//src/per/gpio.h ****  * 
  20:/Users/ansel/Documents/DaisyExamples/libDaisy//src/per/gpio.h **** */
  21:/Users/ansel/Documents/DaisyExamples/libDaisy//src/per/gpio.h **** class GPIO
  22:/Users/ansel/Documents/DaisyExamples/libDaisy//src/per/gpio.h **** {
  23:/Users/ansel/Documents/DaisyExamples/libDaisy//src/per/gpio.h ****   public:
  24:/Users/ansel/Documents/DaisyExamples/libDaisy//src/per/gpio.h ****     /** @brief Mode of operation for the specified GPIO */
  25:/Users/ansel/Documents/DaisyExamples/libDaisy//src/per/gpio.h ****     enum class Mode
  26:/Users/ansel/Documents/DaisyExamples/libDaisy//src/per/gpio.h ****     {
  27:/Users/ansel/Documents/DaisyExamples/libDaisy//src/per/gpio.h ****         INPUT,     /**< Input for reading state of pin */
  28:/Users/ansel/Documents/DaisyExamples/libDaisy//src/per/gpio.h ****         OUTPUT,    /**< Output w/ push-pull configuration */
  29:/Users/ansel/Documents/DaisyExamples/libDaisy//src/per/gpio.h ****         OUTPUT_OD, /**< Output w/ open-drain configuration */
  30:/Users/ansel/Documents/DaisyExamples/libDaisy//src/per/gpio.h ****         ANALOG,    /**< Analog for connection to ADC or DAC peripheral */
ARM GAS  /var/folders/5r/jcdnhfj535b7rff_ygc02qhr0000gn/T//ccwk7XuB.s 			page 64


  31:/Users/ansel/Documents/DaisyExamples/libDaisy//src/per/gpio.h ****     };
  32:/Users/ansel/Documents/DaisyExamples/libDaisy//src/per/gpio.h **** 
  33:/Users/ansel/Documents/DaisyExamples/libDaisy//src/per/gpio.h ****     /** @brief Configures whether an internal Pull up or Pull down resistor is used. 
  34:/Users/ansel/Documents/DaisyExamples/libDaisy//src/per/gpio.h ****      *  
  35:/Users/ansel/Documents/DaisyExamples/libDaisy//src/per/gpio.h ****      * Internal Pull up/down resistors are typically 40k ohms, and will be between
  36:/Users/ansel/Documents/DaisyExamples/libDaisy//src/per/gpio.h ****      * 30k and 50k
  37:/Users/ansel/Documents/DaisyExamples/libDaisy//src/per/gpio.h ****      * 
  38:/Users/ansel/Documents/DaisyExamples/libDaisy//src/per/gpio.h ****      * When the Pin is configured in Analog mode, the pull up/down resistors are
  39:/Users/ansel/Documents/DaisyExamples/libDaisy//src/per/gpio.h ****      * disabled by hardware. 
  40:/Users/ansel/Documents/DaisyExamples/libDaisy//src/per/gpio.h ****      */
  41:/Users/ansel/Documents/DaisyExamples/libDaisy//src/per/gpio.h ****     enum class Pull
  42:/Users/ansel/Documents/DaisyExamples/libDaisy//src/per/gpio.h ****     {
  43:/Users/ansel/Documents/DaisyExamples/libDaisy//src/per/gpio.h ****         NOPULL,   /**< No pull up resistor */
  44:/Users/ansel/Documents/DaisyExamples/libDaisy//src/per/gpio.h ****         PULLUP,   /**< Internal pull up enabled */
  45:/Users/ansel/Documents/DaisyExamples/libDaisy//src/per/gpio.h ****         PULLDOWN, /**< Internal pull down enabled*/
  46:/Users/ansel/Documents/DaisyExamples/libDaisy//src/per/gpio.h ****     };
  47:/Users/ansel/Documents/DaisyExamples/libDaisy//src/per/gpio.h **** 
  48:/Users/ansel/Documents/DaisyExamples/libDaisy//src/per/gpio.h ****     /** @brief Output speed controls the drive strength, and slew rate of the pin */
  49:/Users/ansel/Documents/DaisyExamples/libDaisy//src/per/gpio.h ****     enum class Speed
  50:/Users/ansel/Documents/DaisyExamples/libDaisy//src/per/gpio.h ****     {
  51:/Users/ansel/Documents/DaisyExamples/libDaisy//src/per/gpio.h ****         LOW,
  52:/Users/ansel/Documents/DaisyExamples/libDaisy//src/per/gpio.h ****         MEDIUM,
  53:/Users/ansel/Documents/DaisyExamples/libDaisy//src/per/gpio.h ****         HIGH,
  54:/Users/ansel/Documents/DaisyExamples/libDaisy//src/per/gpio.h ****         VERY_HIGH,
  55:/Users/ansel/Documents/DaisyExamples/libDaisy//src/per/gpio.h ****     };
  56:/Users/ansel/Documents/DaisyExamples/libDaisy//src/per/gpio.h **** 
  57:/Users/ansel/Documents/DaisyExamples/libDaisy//src/per/gpio.h ****     /** @brief Configuration for a given GPIO */
  58:/Users/ansel/Documents/DaisyExamples/libDaisy//src/per/gpio.h ****     struct Config
  59:/Users/ansel/Documents/DaisyExamples/libDaisy//src/per/gpio.h ****     {
  60:/Users/ansel/Documents/DaisyExamples/libDaisy//src/per/gpio.h ****         Pin   pin;
  61:/Users/ansel/Documents/DaisyExamples/libDaisy//src/per/gpio.h ****         Mode  mode;
  62:/Users/ansel/Documents/DaisyExamples/libDaisy//src/per/gpio.h ****         Pull  pull;
  63:/Users/ansel/Documents/DaisyExamples/libDaisy//src/per/gpio.h ****         Speed speed;
  64:/Users/ansel/Documents/DaisyExamples/libDaisy//src/per/gpio.h **** 
  65:/Users/ansel/Documents/DaisyExamples/libDaisy//src/per/gpio.h ****         /** Constructor with no arguments will prepare an invalid GPIO set as
  66:/Users/ansel/Documents/DaisyExamples/libDaisy//src/per/gpio.h ****          *  an input, with no pullup. 
  67:/Users/ansel/Documents/DaisyExamples/libDaisy//src/per/gpio.h ****          */
  68:/Users/ansel/Documents/DaisyExamples/libDaisy//src/per/gpio.h ****         Config()
  69:/Users/ansel/Documents/DaisyExamples/libDaisy//src/per/gpio.h ****         : pin(), mode(Mode::INPUT), pull(Pull::NOPULL), speed(Speed::LOW)
  70:/Users/ansel/Documents/DaisyExamples/libDaisy//src/per/gpio.h ****         {
  71:/Users/ansel/Documents/DaisyExamples/libDaisy//src/per/gpio.h ****         }
  72:/Users/ansel/Documents/DaisyExamples/libDaisy//src/per/gpio.h ****     };
  73:/Users/ansel/Documents/DaisyExamples/libDaisy//src/per/gpio.h **** 
  74:/Users/ansel/Documents/DaisyExamples/libDaisy//src/per/gpio.h ****     GPIO() {}
 2186              		.loc 12 74 5 is_stmt 1 view .LVU556
 2187              	.LBB682:
 2188              	.LBB683:
 2189              	.LBI683:
  68:/Users/ansel/Documents/DaisyExamples/libDaisy//src/per/gpio.h ****         : pin(), mode(Mode::INPUT), pull(Pull::NOPULL), speed(Speed::LOW)
 2190              		.loc 12 68 9 view .LVU557
 2191              	.LBB684:
 2192              	.LBB685:
 2193              	.LBB686:
 2194              	.LBI686:
 2195              		.file 13 "/Users/ansel/Documents/DaisyExamples/libDaisy//src/daisy_core.h"
   1:/Users/ansel/Documents/DaisyExamples/libDaisy//src/daisy_core.h **** #pragma once
   2:/Users/ansel/Documents/DaisyExamples/libDaisy//src/daisy_core.h **** #ifndef DSY_CORE_HW_H
ARM GAS  /var/folders/5r/jcdnhfj535b7rff_ygc02qhr0000gn/T//ccwk7XuB.s 			page 65


   3:/Users/ansel/Documents/DaisyExamples/libDaisy//src/daisy_core.h **** #define DSY_CORE_HW_H /**< & */
   4:/Users/ansel/Documents/DaisyExamples/libDaisy//src/daisy_core.h **** #include <stdint.h>
   5:/Users/ansel/Documents/DaisyExamples/libDaisy//src/daisy_core.h **** #include <stdlib.h>
   6:/Users/ansel/Documents/DaisyExamples/libDaisy//src/daisy_core.h **** 
   7:/Users/ansel/Documents/DaisyExamples/libDaisy//src/daisy_core.h **** #if defined(_MSC_VER)
   8:/Users/ansel/Documents/DaisyExamples/libDaisy//src/daisy_core.h **** #define FORCE_INLINE __forceinline /**< & */
   9:/Users/ansel/Documents/DaisyExamples/libDaisy//src/daisy_core.h **** #elif defined(__clang__)
  10:/Users/ansel/Documents/DaisyExamples/libDaisy//src/daisy_core.h **** #define FORCE_INLINE inline __attribute__((always_inline)) /**< & */
  11:/Users/ansel/Documents/DaisyExamples/libDaisy//src/daisy_core.h **** #pragma clang diagnostic ignored "-Wduplicate-decl-specifier"
  12:/Users/ansel/Documents/DaisyExamples/libDaisy//src/daisy_core.h **** #elif defined(__GNUC__)
  13:/Users/ansel/Documents/DaisyExamples/libDaisy//src/daisy_core.h **** #define FORCE_INLINE inline __attribute__((always_inline)) /**< & */
  14:/Users/ansel/Documents/DaisyExamples/libDaisy//src/daisy_core.h **** #else
  15:/Users/ansel/Documents/DaisyExamples/libDaisy//src/daisy_core.h **** #error unknown compiler
  16:/Users/ansel/Documents/DaisyExamples/libDaisy//src/daisy_core.h **** #endif
  17:/Users/ansel/Documents/DaisyExamples/libDaisy//src/daisy_core.h **** 
  18:/Users/ansel/Documents/DaisyExamples/libDaisy//src/daisy_core.h **** /** @addtogroup utility
  19:/Users/ansel/Documents/DaisyExamples/libDaisy//src/daisy_core.h ****     @{
  20:/Users/ansel/Documents/DaisyExamples/libDaisy//src/daisy_core.h **** */
  21:/Users/ansel/Documents/DaisyExamples/libDaisy//src/daisy_core.h **** 
  22:/Users/ansel/Documents/DaisyExamples/libDaisy//src/daisy_core.h **** /** Macro for area of memory that is configured as cacheless
  23:/Users/ansel/Documents/DaisyExamples/libDaisy//src/daisy_core.h **** This should be used primarily for DMA buffers, and the like.
  24:/Users/ansel/Documents/DaisyExamples/libDaisy//src/daisy_core.h **** */
  25:/Users/ansel/Documents/DaisyExamples/libDaisy//src/daisy_core.h **** #define DMA_BUFFER_MEM_SECTION __attribute__((section(".sram1_bss")))
  26:/Users/ansel/Documents/DaisyExamples/libDaisy//src/daisy_core.h **** /** 
  27:/Users/ansel/Documents/DaisyExamples/libDaisy//src/daisy_core.h **** THE DTCM RAM section is also non-cached. However, is not suitable 
  28:/Users/ansel/Documents/DaisyExamples/libDaisy//src/daisy_core.h **** for DMA transfers. Performance is on par with internal SRAM w/ 
  29:/Users/ansel/Documents/DaisyExamples/libDaisy//src/daisy_core.h **** cache enabled.
  30:/Users/ansel/Documents/DaisyExamples/libDaisy//src/daisy_core.h **** */
  31:/Users/ansel/Documents/DaisyExamples/libDaisy//src/daisy_core.h **** #define DTCM_MEM_SECTION __attribute__((section(".dtcmram_bss")))
  32:/Users/ansel/Documents/DaisyExamples/libDaisy//src/daisy_core.h **** 
  33:/Users/ansel/Documents/DaisyExamples/libDaisy//src/daisy_core.h **** #define FBIPMAX 0.999985f             /**< close to 1.0f-LSB at 16 bit */
  34:/Users/ansel/Documents/DaisyExamples/libDaisy//src/daisy_core.h **** #define FBIPMIN (-FBIPMAX)            /**< - (1 - LSB) */
  35:/Users/ansel/Documents/DaisyExamples/libDaisy//src/daisy_core.h **** #define U82F_SCALE 0.0078740f         /**< 1 / 127 */
  36:/Users/ansel/Documents/DaisyExamples/libDaisy//src/daisy_core.h **** #define F2U8_SCALE 127.0f             /**< 128 - 1 */
  37:/Users/ansel/Documents/DaisyExamples/libDaisy//src/daisy_core.h **** #define S82F_SCALE 0.0078125f         /**< 1 / (2**7) */
  38:/Users/ansel/Documents/DaisyExamples/libDaisy//src/daisy_core.h **** #define F2S8_SCALE 127.0f             /**< (2 ** 7) - 1 */
  39:/Users/ansel/Documents/DaisyExamples/libDaisy//src/daisy_core.h **** #define S162F_SCALE 3.0517578125e-05f /**< 1 / (2** 15) */
  40:/Users/ansel/Documents/DaisyExamples/libDaisy//src/daisy_core.h **** #define F2S16_SCALE 32767.0f          /**< (2 ** 15) - 1 */
  41:/Users/ansel/Documents/DaisyExamples/libDaisy//src/daisy_core.h **** #define F2S24_SCALE 8388608.0f        /**< 2 ** 23 */
  42:/Users/ansel/Documents/DaisyExamples/libDaisy//src/daisy_core.h **** #define S242F_SCALE 1.192092896e-07f  /**< 1 / (2 ** 23) */
  43:/Users/ansel/Documents/DaisyExamples/libDaisy//src/daisy_core.h **** #define S24SIGN 0x800000              /**< 2 ** 23 */
  44:/Users/ansel/Documents/DaisyExamples/libDaisy//src/daisy_core.h **** #define S322F_SCALE 4.6566129e-10f    /**< 1 / (2** 31) */
  45:/Users/ansel/Documents/DaisyExamples/libDaisy//src/daisy_core.h **** #define F2S32_SCALE 2147483647.f      /**< (2 ** 31) - 1 */
  46:/Users/ansel/Documents/DaisyExamples/libDaisy//src/daisy_core.h **** 
  47:/Users/ansel/Documents/DaisyExamples/libDaisy//src/daisy_core.h **** 
  48:/Users/ansel/Documents/DaisyExamples/libDaisy//src/daisy_core.h **** /** shorthand macro for simplifying the reading of the left 
  49:/Users/ansel/Documents/DaisyExamples/libDaisy//src/daisy_core.h ****  *  channel of a non-interleaved output buffer named out */
  50:/Users/ansel/Documents/DaisyExamples/libDaisy//src/daisy_core.h **** #define OUT_L out[0]
  51:/Users/ansel/Documents/DaisyExamples/libDaisy//src/daisy_core.h **** 
  52:/Users/ansel/Documents/DaisyExamples/libDaisy//src/daisy_core.h **** /** shorthand macro for simplifying the reading of the right 
  53:/Users/ansel/Documents/DaisyExamples/libDaisy//src/daisy_core.h ****  *  channel of a non-interleaved output buffer named out */
  54:/Users/ansel/Documents/DaisyExamples/libDaisy//src/daisy_core.h **** #define OUT_R out[1]
  55:/Users/ansel/Documents/DaisyExamples/libDaisy//src/daisy_core.h **** 
  56:/Users/ansel/Documents/DaisyExamples/libDaisy//src/daisy_core.h **** /** shorthand macro for simplifying the reading of the left 
  57:/Users/ansel/Documents/DaisyExamples/libDaisy//src/daisy_core.h ****  *  channel of a non-interleaved input buffer named in */
  58:/Users/ansel/Documents/DaisyExamples/libDaisy//src/daisy_core.h **** #define IN_L in[0]
  59:/Users/ansel/Documents/DaisyExamples/libDaisy//src/daisy_core.h **** 
ARM GAS  /var/folders/5r/jcdnhfj535b7rff_ygc02qhr0000gn/T//ccwk7XuB.s 			page 66


  60:/Users/ansel/Documents/DaisyExamples/libDaisy//src/daisy_core.h **** /** shorthand macro for simplifying the reading of the right 
  61:/Users/ansel/Documents/DaisyExamples/libDaisy//src/daisy_core.h ****  *  channel of a non-interleaved input buffer named in */
  62:/Users/ansel/Documents/DaisyExamples/libDaisy//src/daisy_core.h **** #define IN_R in[1]
  63:/Users/ansel/Documents/DaisyExamples/libDaisy//src/daisy_core.h **** 
  64:/Users/ansel/Documents/DaisyExamples/libDaisy//src/daisy_core.h **** /** 
  65:/Users/ansel/Documents/DaisyExamples/libDaisy//src/daisy_core.h ****     Computes cube.
  66:/Users/ansel/Documents/DaisyExamples/libDaisy//src/daisy_core.h ****     \param x Number to be cubed
  67:/Users/ansel/Documents/DaisyExamples/libDaisy//src/daisy_core.h ****     \return x ^ 3
  68:/Users/ansel/Documents/DaisyExamples/libDaisy//src/daisy_core.h **** */
  69:/Users/ansel/Documents/DaisyExamples/libDaisy//src/daisy_core.h **** FORCE_INLINE float cube(float x)
  70:/Users/ansel/Documents/DaisyExamples/libDaisy//src/daisy_core.h **** {
  71:/Users/ansel/Documents/DaisyExamples/libDaisy//src/daisy_core.h ****     return (x * x) * x;
  72:/Users/ansel/Documents/DaisyExamples/libDaisy//src/daisy_core.h **** }
  73:/Users/ansel/Documents/DaisyExamples/libDaisy//src/daisy_core.h **** 
  74:/Users/ansel/Documents/DaisyExamples/libDaisy//src/daisy_core.h **** /** 
  75:/Users/ansel/Documents/DaisyExamples/libDaisy//src/daisy_core.h ****     Converts unsigned 8-bit to float
  76:/Users/ansel/Documents/DaisyExamples/libDaisy//src/daisy_core.h ****     \param x Number to be scaled.
  77:/Users/ansel/Documents/DaisyExamples/libDaisy//src/daisy_core.h ****     \return Scaled number.
  78:/Users/ansel/Documents/DaisyExamples/libDaisy//src/daisy_core.h **** */
  79:/Users/ansel/Documents/DaisyExamples/libDaisy//src/daisy_core.h **** FORCE_INLINE float u82f(uint8_t x)
  80:/Users/ansel/Documents/DaisyExamples/libDaisy//src/daisy_core.h **** {
  81:/Users/ansel/Documents/DaisyExamples/libDaisy//src/daisy_core.h ****     return ((float)x - 127.f) * U82F_SCALE;
  82:/Users/ansel/Documents/DaisyExamples/libDaisy//src/daisy_core.h **** }
  83:/Users/ansel/Documents/DaisyExamples/libDaisy//src/daisy_core.h **** 
  84:/Users/ansel/Documents/DaisyExamples/libDaisy//src/daisy_core.h **** /**
  85:/Users/ansel/Documents/DaisyExamples/libDaisy//src/daisy_core.h ****     Converts float to unsigned 8-bit
  86:/Users/ansel/Documents/DaisyExamples/libDaisy//src/daisy_core.h **** */
  87:/Users/ansel/Documents/DaisyExamples/libDaisy//src/daisy_core.h **** FORCE_INLINE uint8_t f2u8(float x)
  88:/Users/ansel/Documents/DaisyExamples/libDaisy//src/daisy_core.h **** {
  89:/Users/ansel/Documents/DaisyExamples/libDaisy//src/daisy_core.h ****     x = x <= FBIPMIN ? FBIPMIN : x;
  90:/Users/ansel/Documents/DaisyExamples/libDaisy//src/daisy_core.h ****     x = x >= FBIPMAX ? FBIPMAX : x;
  91:/Users/ansel/Documents/DaisyExamples/libDaisy//src/daisy_core.h ****     return (uint8_t)((x * F2U8_SCALE) + F2U8_SCALE);
  92:/Users/ansel/Documents/DaisyExamples/libDaisy//src/daisy_core.h **** }
  93:/Users/ansel/Documents/DaisyExamples/libDaisy//src/daisy_core.h **** 
  94:/Users/ansel/Documents/DaisyExamples/libDaisy//src/daisy_core.h **** 
  95:/Users/ansel/Documents/DaisyExamples/libDaisy//src/daisy_core.h **** /** 
  96:/Users/ansel/Documents/DaisyExamples/libDaisy//src/daisy_core.h ****     Converts Signed 8-bit to float
  97:/Users/ansel/Documents/DaisyExamples/libDaisy//src/daisy_core.h ****     \param x Number to be scaled.
  98:/Users/ansel/Documents/DaisyExamples/libDaisy//src/daisy_core.h ****     \return Scaled number.
  99:/Users/ansel/Documents/DaisyExamples/libDaisy//src/daisy_core.h **** */
 100:/Users/ansel/Documents/DaisyExamples/libDaisy//src/daisy_core.h **** FORCE_INLINE float s82f(int8_t x)
 101:/Users/ansel/Documents/DaisyExamples/libDaisy//src/daisy_core.h **** {
 102:/Users/ansel/Documents/DaisyExamples/libDaisy//src/daisy_core.h ****     return (float)x * S82F_SCALE;
 103:/Users/ansel/Documents/DaisyExamples/libDaisy//src/daisy_core.h **** }
 104:/Users/ansel/Documents/DaisyExamples/libDaisy//src/daisy_core.h **** 
 105:/Users/ansel/Documents/DaisyExamples/libDaisy//src/daisy_core.h **** /**
 106:/Users/ansel/Documents/DaisyExamples/libDaisy//src/daisy_core.h ****     Converts float to Signed 8-bit
 107:/Users/ansel/Documents/DaisyExamples/libDaisy//src/daisy_core.h **** */
 108:/Users/ansel/Documents/DaisyExamples/libDaisy//src/daisy_core.h **** FORCE_INLINE int8_t f2s8(float x)
 109:/Users/ansel/Documents/DaisyExamples/libDaisy//src/daisy_core.h **** {
 110:/Users/ansel/Documents/DaisyExamples/libDaisy//src/daisy_core.h ****     x = x <= FBIPMIN ? FBIPMIN : x;
 111:/Users/ansel/Documents/DaisyExamples/libDaisy//src/daisy_core.h ****     x = x >= FBIPMAX ? FBIPMAX : x;
 112:/Users/ansel/Documents/DaisyExamples/libDaisy//src/daisy_core.h ****     return (int32_t)(x * F2S8_SCALE);
 113:/Users/ansel/Documents/DaisyExamples/libDaisy//src/daisy_core.h **** }
 114:/Users/ansel/Documents/DaisyExamples/libDaisy//src/daisy_core.h **** 
 115:/Users/ansel/Documents/DaisyExamples/libDaisy//src/daisy_core.h **** /** 
 116:/Users/ansel/Documents/DaisyExamples/libDaisy//src/daisy_core.h ****     Converts Signed 16-bit to float
ARM GAS  /var/folders/5r/jcdnhfj535b7rff_ygc02qhr0000gn/T//ccwk7XuB.s 			page 67


 117:/Users/ansel/Documents/DaisyExamples/libDaisy//src/daisy_core.h ****     \param x Number to be scaled.
 118:/Users/ansel/Documents/DaisyExamples/libDaisy//src/daisy_core.h ****     \return Scaled number.
 119:/Users/ansel/Documents/DaisyExamples/libDaisy//src/daisy_core.h **** */
 120:/Users/ansel/Documents/DaisyExamples/libDaisy//src/daisy_core.h **** FORCE_INLINE float s162f(int16_t x)
 121:/Users/ansel/Documents/DaisyExamples/libDaisy//src/daisy_core.h **** {
 122:/Users/ansel/Documents/DaisyExamples/libDaisy//src/daisy_core.h ****     return (float)x * S162F_SCALE;
 123:/Users/ansel/Documents/DaisyExamples/libDaisy//src/daisy_core.h **** }
 124:/Users/ansel/Documents/DaisyExamples/libDaisy//src/daisy_core.h **** 
 125:/Users/ansel/Documents/DaisyExamples/libDaisy//src/daisy_core.h **** /**
 126:/Users/ansel/Documents/DaisyExamples/libDaisy//src/daisy_core.h ****     Converts float to Signed 16-bit
 127:/Users/ansel/Documents/DaisyExamples/libDaisy//src/daisy_core.h **** */
 128:/Users/ansel/Documents/DaisyExamples/libDaisy//src/daisy_core.h **** FORCE_INLINE int16_t f2s16(float x)
 129:/Users/ansel/Documents/DaisyExamples/libDaisy//src/daisy_core.h **** {
 130:/Users/ansel/Documents/DaisyExamples/libDaisy//src/daisy_core.h ****     x = x <= FBIPMIN ? FBIPMIN : x;
 131:/Users/ansel/Documents/DaisyExamples/libDaisy//src/daisy_core.h ****     x = x >= FBIPMAX ? FBIPMAX : x;
 132:/Users/ansel/Documents/DaisyExamples/libDaisy//src/daisy_core.h ****     return (int32_t)(x * F2S16_SCALE);
 133:/Users/ansel/Documents/DaisyExamples/libDaisy//src/daisy_core.h **** }
 134:/Users/ansel/Documents/DaisyExamples/libDaisy//src/daisy_core.h **** 
 135:/Users/ansel/Documents/DaisyExamples/libDaisy//src/daisy_core.h **** /**
 136:/Users/ansel/Documents/DaisyExamples/libDaisy//src/daisy_core.h ****     Converts Signed 24-bit to float
 137:/Users/ansel/Documents/DaisyExamples/libDaisy//src/daisy_core.h ****  */
 138:/Users/ansel/Documents/DaisyExamples/libDaisy//src/daisy_core.h **** FORCE_INLINE float s242f(int32_t x)
 139:/Users/ansel/Documents/DaisyExamples/libDaisy//src/daisy_core.h **** {
 140:/Users/ansel/Documents/DaisyExamples/libDaisy//src/daisy_core.h ****     x = (x ^ S24SIGN) - S24SIGN; //sign extend aka ((x<<8)>>8)
 141:/Users/ansel/Documents/DaisyExamples/libDaisy//src/daisy_core.h ****     return (float)x * S242F_SCALE;
 142:/Users/ansel/Documents/DaisyExamples/libDaisy//src/daisy_core.h **** }
 143:/Users/ansel/Documents/DaisyExamples/libDaisy//src/daisy_core.h **** /**
 144:/Users/ansel/Documents/DaisyExamples/libDaisy//src/daisy_core.h ****     Converts float to Signed 24-bit
 145:/Users/ansel/Documents/DaisyExamples/libDaisy//src/daisy_core.h ****  */
 146:/Users/ansel/Documents/DaisyExamples/libDaisy//src/daisy_core.h **** FORCE_INLINE int32_t f2s24(float x)
 147:/Users/ansel/Documents/DaisyExamples/libDaisy//src/daisy_core.h **** {
 148:/Users/ansel/Documents/DaisyExamples/libDaisy//src/daisy_core.h ****     x = x <= FBIPMIN ? FBIPMIN : x;
 149:/Users/ansel/Documents/DaisyExamples/libDaisy//src/daisy_core.h ****     x = x >= FBIPMAX ? FBIPMAX : x;
 150:/Users/ansel/Documents/DaisyExamples/libDaisy//src/daisy_core.h ****     return (int32_t)(x * F2S24_SCALE);
 151:/Users/ansel/Documents/DaisyExamples/libDaisy//src/daisy_core.h **** }
 152:/Users/ansel/Documents/DaisyExamples/libDaisy//src/daisy_core.h **** 
 153:/Users/ansel/Documents/DaisyExamples/libDaisy//src/daisy_core.h **** /**
 154:/Users/ansel/Documents/DaisyExamples/libDaisy//src/daisy_core.h ****     Converts Signed 32-bit to float
 155:/Users/ansel/Documents/DaisyExamples/libDaisy//src/daisy_core.h ****  */
 156:/Users/ansel/Documents/DaisyExamples/libDaisy//src/daisy_core.h **** FORCE_INLINE float s322f(int32_t x)
 157:/Users/ansel/Documents/DaisyExamples/libDaisy//src/daisy_core.h **** {
 158:/Users/ansel/Documents/DaisyExamples/libDaisy//src/daisy_core.h ****     return (float)x * S322F_SCALE;
 159:/Users/ansel/Documents/DaisyExamples/libDaisy//src/daisy_core.h **** }
 160:/Users/ansel/Documents/DaisyExamples/libDaisy//src/daisy_core.h **** /**
 161:/Users/ansel/Documents/DaisyExamples/libDaisy//src/daisy_core.h ****     Converts float to Signed 24-bit
 162:/Users/ansel/Documents/DaisyExamples/libDaisy//src/daisy_core.h ****  */
 163:/Users/ansel/Documents/DaisyExamples/libDaisy//src/daisy_core.h **** FORCE_INLINE int32_t f2s32(float x)
 164:/Users/ansel/Documents/DaisyExamples/libDaisy//src/daisy_core.h **** {
 165:/Users/ansel/Documents/DaisyExamples/libDaisy//src/daisy_core.h ****     x = x <= FBIPMIN ? FBIPMIN : x;
 166:/Users/ansel/Documents/DaisyExamples/libDaisy//src/daisy_core.h ****     x = x >= FBIPMAX ? FBIPMAX : x;
 167:/Users/ansel/Documents/DaisyExamples/libDaisy//src/daisy_core.h ****     return (int32_t)(x * F2S32_SCALE);
 168:/Users/ansel/Documents/DaisyExamples/libDaisy//src/daisy_core.h **** }
 169:/Users/ansel/Documents/DaisyExamples/libDaisy//src/daisy_core.h **** 
 170:/Users/ansel/Documents/DaisyExamples/libDaisy//src/daisy_core.h **** 
 171:/Users/ansel/Documents/DaisyExamples/libDaisy//src/daisy_core.h **** /** Enums and a simple struct for defining a hardware pin on the MCU
 172:/Users/ansel/Documents/DaisyExamples/libDaisy//src/daisy_core.h ****  *  These correlate with the stm32 datasheet, and are used to configure
 173:/Users/ansel/Documents/DaisyExamples/libDaisy//src/daisy_core.h ****  *  the hardware.
ARM GAS  /var/folders/5r/jcdnhfj535b7rff_ygc02qhr0000gn/T//ccwk7XuB.s 			page 68


 174:/Users/ansel/Documents/DaisyExamples/libDaisy//src/daisy_core.h ****  * 
 175:/Users/ansel/Documents/DaisyExamples/libDaisy//src/daisy_core.h ****  *  This along with the dsy_gpio_pin class should no longer be used.
 176:/Users/ansel/Documents/DaisyExamples/libDaisy//src/daisy_core.h ****  *  They are available for backwards compatability. 
 177:/Users/ansel/Documents/DaisyExamples/libDaisy//src/daisy_core.h ****  * 
 178:/Users/ansel/Documents/DaisyExamples/libDaisy//src/daisy_core.h ****  *  Please use GPIOPort enum and the Pin struct instead.
 179:/Users/ansel/Documents/DaisyExamples/libDaisy//src/daisy_core.h ****  */
 180:/Users/ansel/Documents/DaisyExamples/libDaisy//src/daisy_core.h **** typedef enum
 181:/Users/ansel/Documents/DaisyExamples/libDaisy//src/daisy_core.h **** {
 182:/Users/ansel/Documents/DaisyExamples/libDaisy//src/daisy_core.h ****     DSY_GPIOA, /**< & */
 183:/Users/ansel/Documents/DaisyExamples/libDaisy//src/daisy_core.h ****     DSY_GPIOB, /**< & */
 184:/Users/ansel/Documents/DaisyExamples/libDaisy//src/daisy_core.h ****     DSY_GPIOC, /**< & */
 185:/Users/ansel/Documents/DaisyExamples/libDaisy//src/daisy_core.h ****     DSY_GPIOD, /**< & */
 186:/Users/ansel/Documents/DaisyExamples/libDaisy//src/daisy_core.h ****     DSY_GPIOE, /**< & */
 187:/Users/ansel/Documents/DaisyExamples/libDaisy//src/daisy_core.h ****     DSY_GPIOF, /**< & */
 188:/Users/ansel/Documents/DaisyExamples/libDaisy//src/daisy_core.h ****     DSY_GPIOG, /**< & */
 189:/Users/ansel/Documents/DaisyExamples/libDaisy//src/daisy_core.h ****     DSY_GPIOH, /**< & */
 190:/Users/ansel/Documents/DaisyExamples/libDaisy//src/daisy_core.h ****     DSY_GPIOI, /**< & */
 191:/Users/ansel/Documents/DaisyExamples/libDaisy//src/daisy_core.h ****     DSY_GPIOJ, /**< & */
 192:/Users/ansel/Documents/DaisyExamples/libDaisy//src/daisy_core.h ****     DSY_GPIOK, /**< & */
 193:/Users/ansel/Documents/DaisyExamples/libDaisy//src/daisy_core.h ****     DSY_GPIOX, /** This is a non-existant port for unsupported bits of hardware. */
 194:/Users/ansel/Documents/DaisyExamples/libDaisy//src/daisy_core.h ****     DSY_GPIO_LAST, /** Final enum member */
 195:/Users/ansel/Documents/DaisyExamples/libDaisy//src/daisy_core.h **** } dsy_gpio_port;
 196:/Users/ansel/Documents/DaisyExamples/libDaisy//src/daisy_core.h **** 
 197:/Users/ansel/Documents/DaisyExamples/libDaisy//src/daisy_core.h **** /** Hardware define pins 
 198:/Users/ansel/Documents/DaisyExamples/libDaisy//src/daisy_core.h ****  *  
 199:/Users/ansel/Documents/DaisyExamples/libDaisy//src/daisy_core.h ****  *  The dsy_gpio_pin struct should no longer be used, and is only available for
 200:/Users/ansel/Documents/DaisyExamples/libDaisy//src/daisy_core.h ****  *  backwards compatability.
 201:/Users/ansel/Documents/DaisyExamples/libDaisy//src/daisy_core.h ****  * 
 202:/Users/ansel/Documents/DaisyExamples/libDaisy//src/daisy_core.h ****  *  Please use Pin struct instead.
 203:/Users/ansel/Documents/DaisyExamples/libDaisy//src/daisy_core.h ****  */
 204:/Users/ansel/Documents/DaisyExamples/libDaisy//src/daisy_core.h **** typedef struct
 205:/Users/ansel/Documents/DaisyExamples/libDaisy//src/daisy_core.h **** {
 206:/Users/ansel/Documents/DaisyExamples/libDaisy//src/daisy_core.h ****     dsy_gpio_port port; /**< & */
 207:/Users/ansel/Documents/DaisyExamples/libDaisy//src/daisy_core.h ****     uint8_t       pin;  /**< number 0-15 */
 208:/Users/ansel/Documents/DaisyExamples/libDaisy//src/daisy_core.h **** } dsy_gpio_pin;
 209:/Users/ansel/Documents/DaisyExamples/libDaisy//src/daisy_core.h **** 
 210:/Users/ansel/Documents/DaisyExamples/libDaisy//src/daisy_core.h **** /** Helper for creating pins from port/pin combos easily
 211:/Users/ansel/Documents/DaisyExamples/libDaisy//src/daisy_core.h ****  * 
 212:/Users/ansel/Documents/DaisyExamples/libDaisy//src/daisy_core.h ****  *  The dsy_gpio_pin struct should no longer be used, and is only available for
 213:/Users/ansel/Documents/DaisyExamples/libDaisy//src/daisy_core.h ****  *  backwards compatability.
 214:/Users/ansel/Documents/DaisyExamples/libDaisy//src/daisy_core.h ****  * 
 215:/Users/ansel/Documents/DaisyExamples/libDaisy//src/daisy_core.h ****  *  Please use Pin struct instead.
 216:/Users/ansel/Documents/DaisyExamples/libDaisy//src/daisy_core.h **** */
 217:/Users/ansel/Documents/DaisyExamples/libDaisy//src/daisy_core.h **** FORCE_INLINE dsy_gpio_pin dsy_pin(dsy_gpio_port port, uint8_t pin)
 218:/Users/ansel/Documents/DaisyExamples/libDaisy//src/daisy_core.h **** {
 219:/Users/ansel/Documents/DaisyExamples/libDaisy//src/daisy_core.h ****     dsy_gpio_pin p;
 220:/Users/ansel/Documents/DaisyExamples/libDaisy//src/daisy_core.h ****     p.port = port;
 221:/Users/ansel/Documents/DaisyExamples/libDaisy//src/daisy_core.h ****     p.pin  = pin;
 222:/Users/ansel/Documents/DaisyExamples/libDaisy//src/daisy_core.h ****     return p;
 223:/Users/ansel/Documents/DaisyExamples/libDaisy//src/daisy_core.h **** }
 224:/Users/ansel/Documents/DaisyExamples/libDaisy//src/daisy_core.h **** 
 225:/Users/ansel/Documents/DaisyExamples/libDaisy//src/daisy_core.h **** /** Helper for testing sameness of two dsy_gpio_pins
 226:/Users/ansel/Documents/DaisyExamples/libDaisy//src/daisy_core.h ****  *  \return    1 if same, 0 if different
 227:/Users/ansel/Documents/DaisyExamples/libDaisy//src/daisy_core.h ****  * 
 228:/Users/ansel/Documents/DaisyExamples/libDaisy//src/daisy_core.h ****  *  The dsy_gpio_pin struct should no longer be used, and is only available for
 229:/Users/ansel/Documents/DaisyExamples/libDaisy//src/daisy_core.h ****  *  backwards compatability.
 230:/Users/ansel/Documents/DaisyExamples/libDaisy//src/daisy_core.h ****  * 
ARM GAS  /var/folders/5r/jcdnhfj535b7rff_ygc02qhr0000gn/T//ccwk7XuB.s 			page 69


 231:/Users/ansel/Documents/DaisyExamples/libDaisy//src/daisy_core.h ****  *  Please use Pin struct instead.
 232:/Users/ansel/Documents/DaisyExamples/libDaisy//src/daisy_core.h ****  */
 233:/Users/ansel/Documents/DaisyExamples/libDaisy//src/daisy_core.h **** FORCE_INLINE uint8_t dsy_pin_cmp(dsy_gpio_pin *a, dsy_gpio_pin *b)
 234:/Users/ansel/Documents/DaisyExamples/libDaisy//src/daisy_core.h **** {
 235:/Users/ansel/Documents/DaisyExamples/libDaisy//src/daisy_core.h ****     return ((a->port == b->port) && (a->pin == b->pin));
 236:/Users/ansel/Documents/DaisyExamples/libDaisy//src/daisy_core.h **** }
 237:/Users/ansel/Documents/DaisyExamples/libDaisy//src/daisy_core.h **** 
 238:/Users/ansel/Documents/DaisyExamples/libDaisy//src/daisy_core.h **** #ifdef __cplusplus
 239:/Users/ansel/Documents/DaisyExamples/libDaisy//src/daisy_core.h **** 
 240:/Users/ansel/Documents/DaisyExamples/libDaisy//src/daisy_core.h **** namespace daisy
 241:/Users/ansel/Documents/DaisyExamples/libDaisy//src/daisy_core.h **** {
 242:/Users/ansel/Documents/DaisyExamples/libDaisy//src/daisy_core.h **** /** @brief GPIO Port names */
 243:/Users/ansel/Documents/DaisyExamples/libDaisy//src/daisy_core.h **** enum GPIOPort
 244:/Users/ansel/Documents/DaisyExamples/libDaisy//src/daisy_core.h **** {
 245:/Users/ansel/Documents/DaisyExamples/libDaisy//src/daisy_core.h ****     PORTA, /**< Port A */
 246:/Users/ansel/Documents/DaisyExamples/libDaisy//src/daisy_core.h ****     PORTB, /**< Port B */
 247:/Users/ansel/Documents/DaisyExamples/libDaisy//src/daisy_core.h ****     PORTC, /**< Port C */
 248:/Users/ansel/Documents/DaisyExamples/libDaisy//src/daisy_core.h ****     PORTD, /**< Port D */
 249:/Users/ansel/Documents/DaisyExamples/libDaisy//src/daisy_core.h ****     PORTE, /**< Port E */
 250:/Users/ansel/Documents/DaisyExamples/libDaisy//src/daisy_core.h ****     PORTF, /**< Port F */
 251:/Users/ansel/Documents/DaisyExamples/libDaisy//src/daisy_core.h ****     PORTG, /**< Port G */
 252:/Users/ansel/Documents/DaisyExamples/libDaisy//src/daisy_core.h ****     PORTH, /**< Port H */
 253:/Users/ansel/Documents/DaisyExamples/libDaisy//src/daisy_core.h ****     PORTI, /**< Port I */
 254:/Users/ansel/Documents/DaisyExamples/libDaisy//src/daisy_core.h ****     PORTJ, /**< Port J */
 255:/Users/ansel/Documents/DaisyExamples/libDaisy//src/daisy_core.h ****     PORTK, /**< Port K */
 256:/Users/ansel/Documents/DaisyExamples/libDaisy//src/daisy_core.h ****     PORTX, /**< Used as a dummy port to signal an invalid pin. */
 257:/Users/ansel/Documents/DaisyExamples/libDaisy//src/daisy_core.h **** };
 258:/Users/ansel/Documents/DaisyExamples/libDaisy//src/daisy_core.h **** 
 259:/Users/ansel/Documents/DaisyExamples/libDaisy//src/daisy_core.h **** /** @brief representation of hardware port/pin combination */
 260:/Users/ansel/Documents/DaisyExamples/libDaisy//src/daisy_core.h **** struct Pin
 261:/Users/ansel/Documents/DaisyExamples/libDaisy//src/daisy_core.h **** {
 262:/Users/ansel/Documents/DaisyExamples/libDaisy//src/daisy_core.h ****     GPIOPort port;
 263:/Users/ansel/Documents/DaisyExamples/libDaisy//src/daisy_core.h ****     uint8_t  pin;
 264:/Users/ansel/Documents/DaisyExamples/libDaisy//src/daisy_core.h **** 
 265:/Users/ansel/Documents/DaisyExamples/libDaisy//src/daisy_core.h ****     /** @brief Constructor creates a valid pin. 
 266:/Users/ansel/Documents/DaisyExamples/libDaisy//src/daisy_core.h ****      *  @param pt GPIOPort between PA, and PK corresponding to STM32 Port.
 267:/Users/ansel/Documents/DaisyExamples/libDaisy//src/daisy_core.h ****      *  @param pn pin number in range of 0-15
 268:/Users/ansel/Documents/DaisyExamples/libDaisy//src/daisy_core.h ****     */
 269:/Users/ansel/Documents/DaisyExamples/libDaisy//src/daisy_core.h ****     constexpr Pin(const GPIOPort pt, const uint8_t pn) : port(pt), pin(pn) {}
 270:/Users/ansel/Documents/DaisyExamples/libDaisy//src/daisy_core.h **** 
 271:/Users/ansel/Documents/DaisyExamples/libDaisy//src/daisy_core.h ****     /** @brief Basic Constructor creates an invalid Pin object */
 272:/Users/ansel/Documents/DaisyExamples/libDaisy//src/daisy_core.h ****     constexpr Pin() : port(PORTX), pin(255) {}
 2196              		.loc 13 272 15 view .LVU558
 2197 005a 204B     		ldr	r3, .L93+52
 2198              	.LBB687:
 2199              	.LBB688:
 2200              		.loc 13 272 23 is_stmt 0 view .LVU559
 2201 005c 204A     		ldr	r2, .L93+56
 2202 005e 4FF60B71 		movw	r1, #65291
 2203 0062 03F58270 		add	r0, r3, #260
 2204 0066 1180     		strh	r1, [r2]	@ movhi
 2205              	.LVL152:
 2206              		.loc 13 272 23 view .LVU560
 2207              	.LBE688:
 2208              	.LBE687:
 2209              	.LBE686:
  69:/Users/ansel/Documents/DaisyExamples/libDaisy//src/per/gpio.h ****         {
ARM GAS  /var/folders/5r/jcdnhfj535b7rff_ygc02qhr0000gn/T//ccwk7XuB.s 			page 70


 2210              		.loc 12 69 57 view .LVU561
 2211 0068 D460     		str	r4, [r2, #12]
 2212              	.LVL153:
  69:/Users/ansel/Documents/DaisyExamples/libDaisy//src/per/gpio.h ****         {
 2213              		.loc 12 69 57 view .LVU562
 2214              	.LBE685:
 2215              	.LBE684:
 2216              	.LBE683:
 2217              	.LBE682:
 2218              	.LBE681:
  52:big_knob.cpp  **** GPIO inPins[NUM_IN_PINS];
 2219              		.loc 1 52 26 is_stmt 1 view .LVU563
 2220              	.LBB693:
 2221              	.LBB692:
 2222              	.LBB691:
 2223              	.LBB690:
 2224              	.LBB689:
  69:/Users/ansel/Documents/DaisyExamples/libDaisy//src/per/gpio.h ****         {
 2225              		.loc 12 69 37 is_stmt 0 view .LVU564
 2226 006a C2E90144 		strd	r4, r4, [r2, #4]
 2227              	.L88:
 2228              	.LVL154:
  69:/Users/ansel/Documents/DaisyExamples/libDaisy//src/per/gpio.h ****         {
 2229              		.loc 12 69 37 view .LVU565
 2230              	.LBE689:
 2231              	.LBE690:
 2232              	.LBE691:
 2233              	.LBE692:
 2234              	.LBE693:
 2235              	.LBB694:
 2236              	.LBI694:
 2237              		.loc 12 74 5 is_stmt 1 view .LVU566
 2238              	.LBB695:
 2239              	.LBI695:
  68:/Users/ansel/Documents/DaisyExamples/libDaisy//src/per/gpio.h ****         : pin(), mode(Mode::INPUT), pull(Pull::NOPULL), speed(Speed::LOW)
 2240              		.loc 12 68 9 view .LVU567
 2241              	.LBB696:
 2242              	.LBB697:
 2243              	.LBI697:
 2244              		.loc 13 272 15 view .LVU568
 2245              	.LBE697:
 2246              	.LBE696:
 2247              	.LBE695:
 2248              	.LBE694:
  52:big_knob.cpp  **** GPIO inPins[NUM_IN_PINS];
 2249              		.loc 1 52 26 is_stmt 0 view .LVU569
 2250 006e 1433     		adds	r3, r3, #20
 2251              	.LVL155:
 2252              	.LBB708:
 2253              	.LBB705:
 2254              	.LBB702:
  69:/Users/ansel/Documents/DaisyExamples/libDaisy//src/per/gpio.h ****         {
 2255              		.loc 12 69 18 view .LVU570
 2256 0070 0022     		movs	r2, #0
 2257              	.LBB700:
 2258              	.LBB698:
 2259              		.loc 13 272 23 view .LVU571
ARM GAS  /var/folders/5r/jcdnhfj535b7rff_ygc02qhr0000gn/T//ccwk7XuB.s 			page 71


 2260 0072 4FF60B71 		movw	r1, #65291
 2261              	.LBE698:
 2262              	.LBE700:
 2263              	.LBE702:
 2264              	.LBE705:
 2265              	.LBE708:
  52:big_knob.cpp  **** GPIO inPins[NUM_IN_PINS];
 2266              		.loc 1 52 26 view .LVU572
 2267 0076 8342     		cmp	r3, r0
 2268              	.LBB709:
 2269              	.LBB706:
 2270              	.LBB703:
  69:/Users/ansel/Documents/DaisyExamples/libDaisy//src/per/gpio.h ****         {
 2271              		.loc 12 69 57 view .LVU573
 2272 0078 43F8082C 		str	r2, [r3, #-8]
 2273              	.LBB701:
 2274              	.LBB699:
 2275              		.loc 13 272 23 view .LVU574
 2276 007c 23F8141C 		strh	r1, [r3, #-20]	@ movhi
 2277              	.LVL156:
 2278              		.loc 13 272 23 view .LVU575
 2279              	.LBE699:
 2280              	.LBE701:
 2281              	.LBE703:
 2282              	.LBE706:
 2283              	.LBE709:
  52:big_knob.cpp  **** GPIO inPins[NUM_IN_PINS];
 2284              		.loc 1 52 26 is_stmt 1 view .LVU576
 2285              	.LBB710:
 2286              	.LBB707:
 2287              	.LBB704:
  69:/Users/ansel/Documents/DaisyExamples/libDaisy//src/per/gpio.h ****         {
 2288              		.loc 12 69 37 is_stmt 0 view .LVU577
 2289 0080 43E90422 		strd	r2, r2, [r3, #-16]
 2290              	.LBE704:
 2291              	.LBE707:
 2292              	.LBE710:
  52:big_knob.cpp  **** GPIO inPins[NUM_IN_PINS];
 2293              		.loc 1 52 26 view .LVU578
 2294 0084 F3D1     		bne	.L88
 2295 0086 174B     		ldr	r3, .L93+60
 2296 0088 03F1B400 		add	r0, r3, #180
 2297              	.L89:
 2298              	.LVL157:
 2299              	.LBB711:
 2300              	.LBI711:
 2301              		.loc 12 74 5 is_stmt 1 view .LVU579
 2302              	.LBB712:
 2303              	.LBI712:
  68:/Users/ansel/Documents/DaisyExamples/libDaisy//src/per/gpio.h ****         : pin(), mode(Mode::INPUT), pull(Pull::NOPULL), speed(Speed::LOW)
 2304              		.loc 12 68 9 view .LVU580
 2305              	.LBB713:
 2306              	.LBB714:
 2307              	.LBI714:
 2308              		.loc 13 272 15 view .LVU581
 2309              	.LBE714:
 2310              	.LBE713:
ARM GAS  /var/folders/5r/jcdnhfj535b7rff_ygc02qhr0000gn/T//ccwk7XuB.s 			page 72


 2311              	.LBE712:
 2312              	.LBE711:
  53:big_knob.cpp  **** /* LEVELS
 2313              		.loc 1 53 24 is_stmt 0 view .LVU582
 2314 008c 1433     		adds	r3, r3, #20
 2315              	.LVL158:
 2316              	.LBB725:
 2317              	.LBB722:
 2318              	.LBB719:
  69:/Users/ansel/Documents/DaisyExamples/libDaisy//src/per/gpio.h ****         {
 2319              		.loc 12 69 18 view .LVU583
 2320 008e 0022     		movs	r2, #0
 2321              	.LBB717:
 2322              	.LBB715:
 2323              		.loc 13 272 23 view .LVU584
 2324 0090 4FF60B71 		movw	r1, #65291
 2325              	.LBE715:
 2326              	.LBE717:
 2327              	.LBE719:
 2328              	.LBE722:
 2329              	.LBE725:
  53:big_knob.cpp  **** /* LEVELS
 2330              		.loc 1 53 24 view .LVU585
 2331 0094 9842     		cmp	r0, r3
 2332              	.LBB726:
 2333              	.LBB723:
 2334              	.LBB720:
  69:/Users/ansel/Documents/DaisyExamples/libDaisy//src/per/gpio.h ****         {
 2335              		.loc 12 69 57 view .LVU586
 2336 0096 43F8082C 		str	r2, [r3, #-8]
 2337              	.LBB718:
 2338              	.LBB716:
 2339              		.loc 13 272 23 view .LVU587
 2340 009a 23F8141C 		strh	r1, [r3, #-20]	@ movhi
 2341              	.LVL159:
 2342              		.loc 13 272 23 view .LVU588
 2343              	.LBE716:
 2344              	.LBE718:
 2345              	.LBE720:
 2346              	.LBE723:
 2347              	.LBE726:
  53:big_knob.cpp  **** /* LEVELS
 2348              		.loc 1 53 24 is_stmt 1 view .LVU589
 2349              	.LBB727:
 2350              	.LBB724:
 2351              	.LBB721:
  69:/Users/ansel/Documents/DaisyExamples/libDaisy//src/per/gpio.h ****         {
 2352              		.loc 12 69 37 is_stmt 0 view .LVU590
 2353 009e 43E90422 		strd	r2, r2, [r3, #-16]
 2354              	.LBE721:
 2355              	.LBE724:
 2356              	.LBE727:
  53:big_knob.cpp  **** /* LEVELS
 2357              		.loc 1 53 24 view .LVU591
 2358 00a2 F3D1     		bne	.L89
 2359              	.LBE728:
 2360              	.LBE729:
ARM GAS  /var/folders/5r/jcdnhfj535b7rff_ygc02qhr0000gn/T//ccwk7XuB.s 			page 73


 2361              		.loc 1 286 1 view .LVU592
 2362 00a4 10BD     		pop	{r4, pc}
 2363              	.L94:
 2364 00a6 00BF     		.align	2
 2365              	.L93:
 2366 00a8 00000000 		.word	hw
 2367 00ac 00000000 		.word	__dso_handle
 2368 00b0 00000000 		.word	_ZN5daisy9DaisySeedD1Ev
 2369 00b4 00000000 		.word	_ZN7daisysp10OscillatorD1Ev
 2370 00b8 00000000 		.word	osc1
 2371 00bc 00000000 		.word	osc2
 2372 00c0 00000000 		.word	osc3
 2373 00c4 00000000 		.word	_ZN7daisysp6BiquadD1Ev
 2374 00c8 00000000 		.word	flt1
 2375 00cc 00000000 		.word	flt2
 2376 00d0 00000000 		.word	flt3
 2377 00d4 00000000 		.word	_ZN7daisysp8ReverbScD1Ev
 2378 00d8 00000000 		.word	reverb
 2379 00dc 00000000 		.word	outPins
 2380 00e0 00000000 		.word	power
 2381 00e4 00000000 		.word	inPins
 2382              		.cfi_endproc
 2383              	.LFE5364:
 2385              		.section	.init_array,"aw",%init_array
 2386              		.align	2
 2387 0000 00000000 		.word	_GLOBAL__sub_I_hw(target1)
 2388              		.global	patchbay
 2389              		.section	.bss.patchbay,"aw",%nobits
 2390              		.align	2
 2393              	patchbay:
 2394 0000 00000000 		.space	468
 2394      00000000 
 2394      00000000 
 2394      00000000 
 2394      00000000 
 2395              		.global	levels
 2396              		.section	.bss.levels,"aw",%nobits
 2397              		.align	2
 2400              	levels:
 2401 0000 00000000 		.space	128
 2401      00000000 
 2401      00000000 
 2401      00000000 
 2401      00000000 
 2402              		.global	inPins
 2403              		.section	.bss.inPins,"aw",%nobits
 2404              		.align	2
 2407              	inPins:
 2408 0000 00000000 		.space	180
 2408      00000000 
 2408      00000000 
 2408      00000000 
 2408      00000000 
 2409              		.global	outPins
 2410              		.section	.bss.outPins,"aw",%nobits
 2411              		.align	2
 2414              	outPins:
ARM GAS  /var/folders/5r/jcdnhfj535b7rff_ygc02qhr0000gn/T//ccwk7XuB.s 			page 74


 2415 0000 00000000 		.space	260
 2415      00000000 
 2415      00000000 
 2415      00000000 
 2415      00000000 
 2416              		.global	power
 2417              		.section	.bss.power,"aw",%nobits
 2418              		.align	2
 2421              	power:
 2422 0000 00000000 		.space	20
 2422      00000000 
 2422      00000000 
 2422      00000000 
 2422      00000000 
 2423              		.global	reverb
 2424              		.section	.bss.reverb,"aw",%nobits
 2425              		.align	2
 2428              	reverb:
 2429 0000 00000000 		.space	396100
 2429      00000000 
 2429      00000000 
 2429      00000000 
 2429      00000000 
 2430              		.global	flt3
 2431              		.section	.bss.flt3,"aw",%nobits
 2432              		.align	2
 2435              	flt3:
 2436 0000 00000000 		.space	56
 2436      00000000 
 2436      00000000 
 2436      00000000 
 2436      00000000 
 2437              		.global	flt2
 2438              		.section	.bss.flt2,"aw",%nobits
 2439              		.align	2
 2442              	flt2:
 2443 0000 00000000 		.space	56
 2443      00000000 
 2443      00000000 
 2443      00000000 
 2443      00000000 
 2444              		.global	flt1
 2445              		.section	.bss.flt1,"aw",%nobits
 2446              		.align	2
 2449              	flt1:
 2450 0000 00000000 		.space	56
 2450      00000000 
 2450      00000000 
 2450      00000000 
 2450      00000000 
 2451              		.global	osc3
 2452              		.section	.bss.osc3,"aw",%nobits
 2453              		.align	2
 2456              	osc3:
 2457 0000 00000000 		.space	48
 2457      00000000 
 2457      00000000 
ARM GAS  /var/folders/5r/jcdnhfj535b7rff_ygc02qhr0000gn/T//ccwk7XuB.s 			page 75


 2457      00000000 
 2457      00000000 
 2458              		.global	osc2
 2459              		.section	.bss.osc2,"aw",%nobits
 2460              		.align	2
 2463              	osc2:
 2464 0000 00000000 		.space	48
 2464      00000000 
 2464      00000000 
 2464      00000000 
 2464      00000000 
 2465              		.global	osc1
 2466              		.section	.bss.osc1,"aw",%nobits
 2467              		.align	2
 2470              	osc1:
 2471 0000 00000000 		.space	48
 2471      00000000 
 2471      00000000 
 2471      00000000 
 2471      00000000 
 2472              		.global	hw
 2473              		.section	.bss.hw,"aw",%nobits
 2474              		.align	2
 2477              	hw:
 2478 0000 00000000 		.space	60
 2478      00000000 
 2478      00000000 
 2478      00000000 
 2478      00000000 
 2479              		.section	.rodata._ZN5daisy4seedL3D28E,"a"
 2480              		.align	2
 2483              	_ZN5daisy4seedL3D28E:
 2484 0000 00       		.byte	0
 2485 0001 02       		.byte	2
 2486              		.section	.rodata._ZN5daisy4seedL3D27E,"a"
 2487              		.align	2
 2490              	_ZN5daisy4seedL3D27E:
 2491 0000 06       		.byte	6
 2492 0001 09       		.byte	9
 2493              		.section	.rodata._ZN5daisy4seedL3D26E,"a"
 2494              		.align	2
 2497              	_ZN5daisy4seedL3D26E:
 2498 0000 03       		.byte	3
 2499 0001 0B       		.byte	11
 2500              		.section	.rodata._ZN5daisy4seedL3D25E,"a"
 2501              		.align	2
 2504              	_ZN5daisy4seedL3D25E:
 2505 0000 0000     		.space	2
 2506              		.section	.rodata._ZN5daisy4seedL3D24E,"a"
 2507              		.align	2
 2510              	_ZN5daisy4seedL3D24E:
 2511 0000 00       		.byte	0
 2512 0001 01       		.byte	1
 2513              		.section	.rodata._ZN5daisy4seedL3D23E,"a"
 2514              		.align	2
 2517              	_ZN5daisy4seedL3D23E:
 2518 0000 00       		.byte	0
ARM GAS  /var/folders/5r/jcdnhfj535b7rff_ygc02qhr0000gn/T//ccwk7XuB.s 			page 76


 2519 0001 04       		.byte	4
 2520              		.section	.rodata._ZN5daisy4seedL3D22E,"a"
 2521              		.align	2
 2524              	_ZN5daisy4seedL3D22E:
 2525 0000 00       		.byte	0
 2526 0001 05       		.byte	5
 2527              		.section	.rodata._ZN5daisy4seedL3D21E,"a"
 2528              		.align	2
 2531              	_ZN5daisy4seedL3D21E:
 2532 0000 02       		.byte	2
 2533 0001 04       		.byte	4
 2534              		.section	.rodata._ZN5daisy4seedL3D20E,"a"
 2535              		.align	2
 2538              	_ZN5daisy4seedL3D20E:
 2539 0000 02       		.byte	2
 2540 0001 01       		.byte	1
 2541              		.section	.rodata._ZN5daisy4seedL3D19E,"a"
 2542              		.align	2
 2545              	_ZN5daisy4seedL3D19E:
 2546 0000 00       		.byte	0
 2547 0001 06       		.byte	6
 2548              		.section	.rodata._ZN5daisy4seedL3D14E,"a"
 2549              		.align	2
 2552              	_ZN5daisy4seedL3D14E:
 2553 0000 01       		.byte	1
 2554 0001 07       		.byte	7
 2555              		.section	.rodata._ZN5daisy4seedL3D13E,"a"
 2556              		.align	2
 2559              	_ZN5daisy4seedL3D13E:
 2560 0000 01       		.byte	1
 2561 0001 06       		.byte	6
 2562              		.section	.rodata._ZN5daisy4seedL2D0E,"a"
 2563              		.align	2
 2566              	_ZN5daisy4seedL2D0E:
 2567 0000 01       		.byte	1
 2568 0001 0C       		.byte	12
 2569              		.text
 2570              	.Letext0:
 2571              		.file 14 "/Applications/ArmGNUToolchain/12.2.rel1/arm-none-eabi/arm-none-eabi/include/machine/_def
 2572              		.file 15 "/Applications/ArmGNUToolchain/12.2.rel1/arm-none-eabi/arm-none-eabi/include/sys/_stdint.
 2573              		.file 16 "/Applications/ArmGNUToolchain/12.2.rel1/arm-none-eabi/arm-none-eabi/include/stdint.h"
 2574              		.file 17 "/Applications/ArmGNUToolchain/12.2.rel1/arm-none-eabi/lib/gcc/arm-none-eabi/12.2.1/inclu
 2575              		.file 18 "/Applications/ArmGNUToolchain/12.2.rel1/arm-none-eabi/arm-none-eabi/include/c++/12.2.1/c
 2576              		.file 19 "/Applications/ArmGNUToolchain/12.2.rel1/arm-none-eabi/arm-none-eabi/include/c++/12.2.1/b
 2577              		.file 20 "/Applications/ArmGNUToolchain/12.2.rel1/arm-none-eabi/arm-none-eabi/include/c++/12.2.1/c
 2578              		.file 21 "/Applications/ArmGNUToolchain/12.2.rel1/arm-none-eabi/arm-none-eabi/include/c++/12.2.1/c
 2579              		.file 22 "/Applications/ArmGNUToolchain/12.2.rel1/arm-none-eabi/arm-none-eabi/include/c++/12.2.1/t
 2580              		.file 23 "/Applications/ArmGNUToolchain/12.2.rel1/arm-none-eabi/arm-none-eabi/include/c++/12.2.1/d
 2581              		.file 24 "/Applications/ArmGNUToolchain/12.2.rel1/arm-none-eabi/arm-none-eabi/include/c++/12.2.1/c
 2582              		.file 25 "/Applications/ArmGNUToolchain/12.2.rel1/arm-none-eabi/arm-none-eabi/include/c++/12.2.1/c
 2583              		.file 26 "/Applications/ArmGNUToolchain/12.2.rel1/arm-none-eabi/arm-none-eabi/include/c++/12.2.1/c
 2584              		.file 27 "/Applications/ArmGNUToolchain/12.2.rel1/arm-none-eabi/arm-none-eabi/include/c++/12.2.1/c
 2585              		.file 28 "/Applications/ArmGNUToolchain/12.2.rel1/arm-none-eabi/arm-none-eabi/include/c++/12.2.1/c
 2586              		.file 29 "/Applications/ArmGNUToolchain/12.2.rel1/arm-none-eabi/arm-none-eabi/include/c++/12.2.1/b
 2587              		.file 30 "/Applications/ArmGNUToolchain/12.2.rel1/arm-none-eabi/arm-none-eabi/include/c++/12.2.1/b
 2588              		.file 31 "/Applications/ArmGNUToolchain/12.2.rel1/arm-none-eabi/arm-none-eabi/include/sys/_types.h
 2589              		.file 32 "/Applications/ArmGNUToolchain/12.2.rel1/arm-none-eabi/arm-none-eabi/include/sys/reent.h"
ARM GAS  /var/folders/5r/jcdnhfj535b7rff_ygc02qhr0000gn/T//ccwk7XuB.s 			page 77


 2590              		.file 33 "/Applications/ArmGNUToolchain/12.2.rel1/arm-none-eabi/arm-none-eabi/include/sys/lock.h"
 2591              		.file 34 "/Applications/ArmGNUToolchain/12.2.rel1/arm-none-eabi/arm-none-eabi/include/c++/12.2.1/b
 2592              		.file 35 "/Applications/ArmGNUToolchain/12.2.rel1/arm-none-eabi/arm-none-eabi/include/math.h"
 2593              		.file 36 "/Applications/ArmGNUToolchain/12.2.rel1/arm-none-eabi/arm-none-eabi/include/stdlib.h"
 2594              		.file 37 "/Applications/ArmGNUToolchain/12.2.rel1/arm-none-eabi/arm-none-eabi/include/c++/12.2.1/m
 2595              		.file 38 "/Applications/ArmGNUToolchain/12.2.rel1/arm-none-eabi/arm-none-eabi/include/c++/12.2.1/s
 2596              		.file 39 "/Applications/ArmGNUToolchain/12.2.rel1/arm-none-eabi/arm-none-eabi/include/c++/12.2.1/a
 2597              		.file 40 "/Users/ansel/Documents/DaisyExamples/libDaisy//src/per/sai.h"
 2598              		.file 41 "/Users/ansel/Documents/DaisyExamples/libDaisy//src/util/wav_format.h"
 2599              		.file 42 "/Users/ansel/Documents/DaisyExamples/libDaisy//src/dev/max11300.h"
 2600              		.file 43 "/Users/ansel/Documents/DaisyExamples/libDaisy//src/dev/sdram.h"
 2601              		.file 44 "/Applications/ArmGNUToolchain/12.2.rel1/arm-none-eabi/lib/gcc/arm-none-eabi/12.2.1/inclu
 2602              		.file 45 "/Applications/ArmGNUToolchain/12.2.rel1/arm-none-eabi/arm-none-eabi/include/stdio.h"
 2603              		.file 46 "/Applications/ArmGNUToolchain/12.2.rel1/arm-none-eabi/arm-none-eabi/include/string.h"
 2604              		.file 47 "/Users/ansel/Documents/DaisyExamples/DaisySP//Source/Control/adenv.h"
 2605              		.file 48 "/Users/ansel/Documents/DaisyExamples/DaisySP//Source/Utility/dsp.h"
 2606              		.file 49 "/Applications/ArmGNUToolchain/12.2.rel1/arm-none-eabi/arm-none-eabi/include/wchar.h"
 2607              		.file 50 "/Applications/ArmGNUToolchain/12.2.rel1/arm-none-eabi/arm-none-eabi/include/locale.h"
 2608              		.file 51 "/Users/ansel/Documents/DaisyExamples/libDaisy//src/dev/sr_595.h"
 2609              		.file 52 "<built-in>"
ARM GAS  /var/folders/5r/jcdnhfj535b7rff_ygc02qhr0000gn/T//ccwk7XuB.s 			page 78


DEFINED SYMBOLS
                            *ABS*:0000000000000000 big_knob.cpp
/var/folders/5r/jcdnhfj535b7rff_ygc02qhr0000gn/T//ccwk7XuB.s:20     .text._ZN5daisy9DaisySeedD2Ev:0000000000000000 $t
/var/folders/5r/jcdnhfj535b7rff_ygc02qhr0000gn/T//ccwk7XuB.s:27     .text._ZN5daisy9DaisySeedD2Ev:0000000000000000 _ZN5daisy9DaisySeedD2Ev
/var/folders/5r/jcdnhfj535b7rff_ygc02qhr0000gn/T//ccwk7XuB.s:27     .text._ZN5daisy9DaisySeedD2Ev:0000000000000000 _ZN5daisy9DaisySeedD1Ev
/var/folders/5r/jcdnhfj535b7rff_ygc02qhr0000gn/T//ccwk7XuB.s:68     .text._ZN7daisysp10OscillatorD2Ev:0000000000000000 $t
/var/folders/5r/jcdnhfj535b7rff_ygc02qhr0000gn/T//ccwk7XuB.s:75     .text._ZN7daisysp10OscillatorD2Ev:0000000000000000 _ZN7daisysp10OscillatorD2Ev
/var/folders/5r/jcdnhfj535b7rff_ygc02qhr0000gn/T//ccwk7XuB.s:75     .text._ZN7daisysp10OscillatorD2Ev:0000000000000000 _ZN7daisysp10OscillatorD1Ev
/var/folders/5r/jcdnhfj535b7rff_ygc02qhr0000gn/T//ccwk7XuB.s:92     .text._ZN7daisysp8ReverbScD2Ev:0000000000000000 $t
/var/folders/5r/jcdnhfj535b7rff_ygc02qhr0000gn/T//ccwk7XuB.s:99     .text._ZN7daisysp8ReverbScD2Ev:0000000000000000 _ZN7daisysp8ReverbScD2Ev
/var/folders/5r/jcdnhfj535b7rff_ygc02qhr0000gn/T//ccwk7XuB.s:99     .text._ZN7daisysp8ReverbScD2Ev:0000000000000000 _ZN7daisysp8ReverbScD1Ev
/var/folders/5r/jcdnhfj535b7rff_ygc02qhr0000gn/T//ccwk7XuB.s:116    .text._ZN7daisysp6BiquadD2Ev:0000000000000000 $t
/var/folders/5r/jcdnhfj535b7rff_ygc02qhr0000gn/T//ccwk7XuB.s:123    .text._ZN7daisysp6BiquadD2Ev:0000000000000000 _ZN7daisysp6BiquadD2Ev
/var/folders/5r/jcdnhfj535b7rff_ygc02qhr0000gn/T//ccwk7XuB.s:123    .text._ZN7daisysp6BiquadD2Ev:0000000000000000 _ZN7daisysp6BiquadD1Ev
/var/folders/5r/jcdnhfj535b7rff_ygc02qhr0000gn/T//ccwk7XuB.s:140    .text._Z13AudioCallbackPKPKfPPfj:0000000000000000 $t
/var/folders/5r/jcdnhfj535b7rff_ygc02qhr0000gn/T//ccwk7XuB.s:147    .text._Z13AudioCallbackPKPKfPPfj:0000000000000000 _Z13AudioCallbackPKPKfPPfj
/var/folders/5r/jcdnhfj535b7rff_ygc02qhr0000gn/T//ccwk7XuB.s:851    .text._Z13AudioCallbackPKPKfPPfj:0000000000000250 $d
/var/folders/5r/jcdnhfj535b7rff_ygc02qhr0000gn/T//ccwk7XuB.s:2421   .bss.power:0000000000000000 power
/var/folders/5r/jcdnhfj535b7rff_ygc02qhr0000gn/T//ccwk7XuB.s:2477   .bss.hw:0000000000000000 hw
/var/folders/5r/jcdnhfj535b7rff_ygc02qhr0000gn/T//ccwk7XuB.s:2470   .bss.osc1:0000000000000000 osc1
/var/folders/5r/jcdnhfj535b7rff_ygc02qhr0000gn/T//ccwk7XuB.s:2463   .bss.osc2:0000000000000000 osc2
/var/folders/5r/jcdnhfj535b7rff_ygc02qhr0000gn/T//ccwk7XuB.s:2456   .bss.osc3:0000000000000000 osc3
/var/folders/5r/jcdnhfj535b7rff_ygc02qhr0000gn/T//ccwk7XuB.s:2449   .bss.flt1:0000000000000000 flt1
/var/folders/5r/jcdnhfj535b7rff_ygc02qhr0000gn/T//ccwk7XuB.s:2442   .bss.flt2:0000000000000000 flt2
/var/folders/5r/jcdnhfj535b7rff_ygc02qhr0000gn/T//ccwk7XuB.s:2435   .bss.flt3:0000000000000000 flt3
/var/folders/5r/jcdnhfj535b7rff_ygc02qhr0000gn/T//ccwk7XuB.s:2428   .bss.reverb:0000000000000000 reverb
/var/folders/5r/jcdnhfj535b7rff_ygc02qhr0000gn/T//ccwk7XuB.s:2393   .bss.patchbay:0000000000000000 patchbay
/var/folders/5r/jcdnhfj535b7rff_ygc02qhr0000gn/T//ccwk7XuB.s:2400   .bss.levels:0000000000000000 levels
/var/folders/5r/jcdnhfj535b7rff_ygc02qhr0000gn/T//ccwk7XuB.s:873    .text._Z13AudioCallbackPKPKfPPfj:0000000000000294 $t
/var/folders/5r/jcdnhfj535b7rff_ygc02qhr0000gn/T//ccwk7XuB.s:1406   .text._Z13AudioCallbackPKPKfPPfj:00000000000004c8 $d
/var/folders/5r/jcdnhfj535b7rff_ygc02qhr0000gn/T//ccwk7XuB.s:1424   .text._ZN7daisysp10Oscillator4InitEf:0000000000000000 $t
/var/folders/5r/jcdnhfj535b7rff_ygc02qhr0000gn/T//ccwk7XuB.s:1431   .text._ZN7daisysp10Oscillator4InitEf:0000000000000000 _ZN7daisysp10Oscillator4InitEf
/var/folders/5r/jcdnhfj535b7rff_ygc02qhr0000gn/T//ccwk7XuB.s:1505   .text._ZN7daisysp10Oscillator4InitEf:0000000000000044 $d
/var/folders/5r/jcdnhfj535b7rff_ygc02qhr0000gn/T//ccwk7XuB.s:1511   .text._Z10pot_switchf:0000000000000000 $t
/var/folders/5r/jcdnhfj535b7rff_ygc02qhr0000gn/T//ccwk7XuB.s:1518   .text._Z10pot_switchf:0000000000000000 _Z10pot_switchf
/var/folders/5r/jcdnhfj535b7rff_ygc02qhr0000gn/T//ccwk7XuB.s:1556   .text.startup.main:0000000000000000 $t
/var/folders/5r/jcdnhfj535b7rff_ygc02qhr0000gn/T//ccwk7XuB.s:1563   .text.startup.main:0000000000000000 main
/var/folders/5r/jcdnhfj535b7rff_ygc02qhr0000gn/T//ccwk7XuB.s:1954   .text.startup.main:0000000000000244 $d
/var/folders/5r/jcdnhfj535b7rff_ygc02qhr0000gn/T//ccwk7XuB.s:2566   .rodata._ZN5daisy4seedL2D0E:0000000000000000 _ZN5daisy4seedL2D0E
/var/folders/5r/jcdnhfj535b7rff_ygc02qhr0000gn/T//ccwk7XuB.s:2559   .rodata._ZN5daisy4seedL3D13E:0000000000000000 _ZN5daisy4seedL3D13E
/var/folders/5r/jcdnhfj535b7rff_ygc02qhr0000gn/T//ccwk7XuB.s:2414   .bss.outPins:0000000000000000 outPins
/var/folders/5r/jcdnhfj535b7rff_ygc02qhr0000gn/T//ccwk7XuB.s:2552   .rodata._ZN5daisy4seedL3D14E:0000000000000000 _ZN5daisy4seedL3D14E
/var/folders/5r/jcdnhfj535b7rff_ygc02qhr0000gn/T//ccwk7XuB.s:2545   .rodata._ZN5daisy4seedL3D19E:0000000000000000 _ZN5daisy4seedL3D19E
/var/folders/5r/jcdnhfj535b7rff_ygc02qhr0000gn/T//ccwk7XuB.s:2538   .rodata._ZN5daisy4seedL3D20E:0000000000000000 _ZN5daisy4seedL3D20E
/var/folders/5r/jcdnhfj535b7rff_ygc02qhr0000gn/T//ccwk7XuB.s:2531   .rodata._ZN5daisy4seedL3D21E:0000000000000000 _ZN5daisy4seedL3D21E
/var/folders/5r/jcdnhfj535b7rff_ygc02qhr0000gn/T//ccwk7XuB.s:2524   .rodata._ZN5daisy4seedL3D22E:0000000000000000 _ZN5daisy4seedL3D22E
/var/folders/5r/jcdnhfj535b7rff_ygc02qhr0000gn/T//ccwk7XuB.s:2517   .rodata._ZN5daisy4seedL3D23E:0000000000000000 _ZN5daisy4seedL3D23E
/var/folders/5r/jcdnhfj535b7rff_ygc02qhr0000gn/T//ccwk7XuB.s:2510   .rodata._ZN5daisy4seedL3D24E:0000000000000000 _ZN5daisy4seedL3D24E
/var/folders/5r/jcdnhfj535b7rff_ygc02qhr0000gn/T//ccwk7XuB.s:2407   .bss.inPins:0000000000000000 inPins
/var/folders/5r/jcdnhfj535b7rff_ygc02qhr0000gn/T//ccwk7XuB.s:2504   .rodata._ZN5daisy4seedL3D25E:0000000000000000 _ZN5daisy4seedL3D25E
/var/folders/5r/jcdnhfj535b7rff_ygc02qhr0000gn/T//ccwk7XuB.s:2497   .rodata._ZN5daisy4seedL3D26E:0000000000000000 _ZN5daisy4seedL3D26E
/var/folders/5r/jcdnhfj535b7rff_ygc02qhr0000gn/T//ccwk7XuB.s:2490   .rodata._ZN5daisy4seedL3D27E:0000000000000000 _ZN5daisy4seedL3D27E
/var/folders/5r/jcdnhfj535b7rff_ygc02qhr0000gn/T//ccwk7XuB.s:2483   .rodata._ZN5daisy4seedL3D28E:0000000000000000 _ZN5daisy4seedL3D28E
/var/folders/5r/jcdnhfj535b7rff_ygc02qhr0000gn/T//ccwk7XuB.s:1996   .text.startup._GLOBAL__sub_I_hw:0000000000000000 $t
/var/folders/5r/jcdnhfj535b7rff_ygc02qhr0000gn/T//ccwk7XuB.s:2002   .text.startup._GLOBAL__sub_I_hw:0000000000000000 _GLOBAL__sub_I_hw
/var/folders/5r/jcdnhfj535b7rff_ygc02qhr0000gn/T//ccwk7XuB.s:2366   .text.startup._GLOBAL__sub_I_hw:00000000000000a8 $d
/var/folders/5r/jcdnhfj535b7rff_ygc02qhr0000gn/T//ccwk7XuB.s:2386   .init_array:0000000000000000 $d
ARM GAS  /var/folders/5r/jcdnhfj535b7rff_ygc02qhr0000gn/T//ccwk7XuB.s 			page 79


/var/folders/5r/jcdnhfj535b7rff_ygc02qhr0000gn/T//ccwk7XuB.s:2390   .bss.patchbay:0000000000000000 $d
/var/folders/5r/jcdnhfj535b7rff_ygc02qhr0000gn/T//ccwk7XuB.s:2397   .bss.levels:0000000000000000 $d
/var/folders/5r/jcdnhfj535b7rff_ygc02qhr0000gn/T//ccwk7XuB.s:2404   .bss.inPins:0000000000000000 $d
/var/folders/5r/jcdnhfj535b7rff_ygc02qhr0000gn/T//ccwk7XuB.s:2411   .bss.outPins:0000000000000000 $d
/var/folders/5r/jcdnhfj535b7rff_ygc02qhr0000gn/T//ccwk7XuB.s:2418   .bss.power:0000000000000000 $d
/var/folders/5r/jcdnhfj535b7rff_ygc02qhr0000gn/T//ccwk7XuB.s:2425   .bss.reverb:0000000000000000 $d
/var/folders/5r/jcdnhfj535b7rff_ygc02qhr0000gn/T//ccwk7XuB.s:2432   .bss.flt3:0000000000000000 $d
/var/folders/5r/jcdnhfj535b7rff_ygc02qhr0000gn/T//ccwk7XuB.s:2439   .bss.flt2:0000000000000000 $d
/var/folders/5r/jcdnhfj535b7rff_ygc02qhr0000gn/T//ccwk7XuB.s:2446   .bss.flt1:0000000000000000 $d
/var/folders/5r/jcdnhfj535b7rff_ygc02qhr0000gn/T//ccwk7XuB.s:2453   .bss.osc3:0000000000000000 $d
/var/folders/5r/jcdnhfj535b7rff_ygc02qhr0000gn/T//ccwk7XuB.s:2460   .bss.osc2:0000000000000000 $d
/var/folders/5r/jcdnhfj535b7rff_ygc02qhr0000gn/T//ccwk7XuB.s:2467   .bss.osc1:0000000000000000 $d
/var/folders/5r/jcdnhfj535b7rff_ygc02qhr0000gn/T//ccwk7XuB.s:2474   .bss.hw:0000000000000000 $d
/var/folders/5r/jcdnhfj535b7rff_ygc02qhr0000gn/T//ccwk7XuB.s:2480   .rodata._ZN5daisy4seedL3D28E:0000000000000000 $d
/var/folders/5r/jcdnhfj535b7rff_ygc02qhr0000gn/T//ccwk7XuB.s:2487   .rodata._ZN5daisy4seedL3D27E:0000000000000000 $d
/var/folders/5r/jcdnhfj535b7rff_ygc02qhr0000gn/T//ccwk7XuB.s:2494   .rodata._ZN5daisy4seedL3D26E:0000000000000000 $d
/var/folders/5r/jcdnhfj535b7rff_ygc02qhr0000gn/T//ccwk7XuB.s:2501   .rodata._ZN5daisy4seedL3D25E:0000000000000000 $d
/var/folders/5r/jcdnhfj535b7rff_ygc02qhr0000gn/T//ccwk7XuB.s:2507   .rodata._ZN5daisy4seedL3D24E:0000000000000000 $d
/var/folders/5r/jcdnhfj535b7rff_ygc02qhr0000gn/T//ccwk7XuB.s:2514   .rodata._ZN5daisy4seedL3D23E:0000000000000000 $d
/var/folders/5r/jcdnhfj535b7rff_ygc02qhr0000gn/T//ccwk7XuB.s:2521   .rodata._ZN5daisy4seedL3D22E:0000000000000000 $d
/var/folders/5r/jcdnhfj535b7rff_ygc02qhr0000gn/T//ccwk7XuB.s:2528   .rodata._ZN5daisy4seedL3D21E:0000000000000000 $d
/var/folders/5r/jcdnhfj535b7rff_ygc02qhr0000gn/T//ccwk7XuB.s:2535   .rodata._ZN5daisy4seedL3D20E:0000000000000000 $d
/var/folders/5r/jcdnhfj535b7rff_ygc02qhr0000gn/T//ccwk7XuB.s:2542   .rodata._ZN5daisy4seedL3D19E:0000000000000000 $d
/var/folders/5r/jcdnhfj535b7rff_ygc02qhr0000gn/T//ccwk7XuB.s:2549   .rodata._ZN5daisy4seedL3D14E:0000000000000000 $d
/var/folders/5r/jcdnhfj535b7rff_ygc02qhr0000gn/T//ccwk7XuB.s:2556   .rodata._ZN5daisy4seedL3D13E:0000000000000000 $d
/var/folders/5r/jcdnhfj535b7rff_ygc02qhr0000gn/T//ccwk7XuB.s:2563   .rodata._ZN5daisy4seedL2D0E:0000000000000000 $d
                           .group:0000000000000000 _ZN5daisy9DaisySeedD5Ev
                           .group:0000000000000000 _ZN7daisysp10OscillatorD5Ev
                           .group:0000000000000000 _ZN7daisysp8ReverbScD5Ev
                           .group:0000000000000000 _ZN7daisysp6BiquadD5Ev

UNDEFINED SYMBOLS
_ZN5daisy4GPIO4ReadEv
_ZNK5daisy9AdcHandle11GetMuxFloatEhh
_ZN7daisysp10Oscillator12CalcPhaseIncEf
_ZN5daisy9DaisySeed15AudioSampleRateEv
_ZN7daisysp6Biquad5ResetEv
_ZN7daisysp10Oscillator7ProcessEv
_ZN7daisysp6Biquad7ProcessEf
_ZN7daisysp8ReverbSc7ProcessERKfS2_PfS3_
memset
_ZN5daisy9DaisySeed4InitEb
_ZN7daisysp6Biquad4InitEf
_ZN7daisysp8ReverbSc4InitEf
_ZN5daisy16AdcChannelConfig7InitMuxE12dsy_gpio_pinjS1_S1_S1_
_ZN5daisy9AdcHandle4InitEPNS_16AdcChannelConfigEjNS0_12OverSamplingE
_ZN5daisy9AdcHandle5StartEv
_ZN5daisy4GPIO4InitENS_3PinENS0_4ModeENS0_4PullENS0_5SpeedE
_ZN5daisy9DaisySeed10StartAudioEPFvPKPKfPPfjE
_ZN5daisy4GPIO5WriteEb
_ZN5daisy6System5DelayEm
__aeabi_atexit
__dso_handle
